(lp1
(lp2
I471
aI0
aI0
aa(lp3
I457
aI0
aI0
aa(lp4
I482
aI0
aI0
aa(lp5
I460
aI0
aI0
aa(lp6
I476
aI0
aI0
aa(lp7
I475
aI0
aI0
aa(lp8
I468
aI0
aI0
aa(lp9
I457
aI0
aI0
aa(lp10
I472
aI0
aI0
aa(lp11
I97
aI0
aI0
aa(lp12
I482
aI0
aI0
aa(lp13
I462
aI0
aI0
aa(lp14
I512
aI0
aI0
aa(lp15
I467
aI0
aI0
aa(lp16
I494
aI0
aI0
aa(lp17
I470
aI0
aI0
aa(lp18
I472
aI0
aI0
aa(lp19
I469
aI0
aI0
aa(lp20
I479
aI0
aI0
aa(lp21
I452
aI0
aI0
aa(lp22
I471
aI0
aI0
aa(lp23
I441
aI0
aI0
aa(lp24
I493
aI0
aI0
aa(lp25
I493
aI0
aI0
aa(lp26
I474
aI0
aI0
aa(lp27
I466
aI0
aI0
aa(lp28
I467
aI0
aI0
aa.