(lp1
(lp2
I559
aI171
aI0
aa(lp3
I2085
aI586
aI0
aa(lp4
I725
aI178
aI0
aa(lp5
I1933
aI564
aI0
aa(lp6
I2572
aI743
aI0
aa(lp7
I1596
aI482
aI0
aa(lp8
I508
aI112
aI0
aa(lp9
I538
aI160
aI0
aa(lp10
I539
aI129
aI0
aa(lp11
I759
aI224
aI0
aa(lp12
I3400
aI1009
aI0
aa(lp13
I1312
aI322
aI0
aa(lp14
I1092
aI297
aI0
aa(lp15
I1847
aI513
aI0
aa(lp16
I2728
aI841
aI0
aa(lp17
I1594
aI460
aI0
aa(lp18
I677
aI193
aI0
aa(lp19
I459
aI104
aI0
aa.