(lp1
(lp2
I432
aI57
aI0
aa(lp3
I438
aI74
aI0
aa(lp4
I449
aI89
aI0
aa(lp5
I448
aI80
aI0
aa(lp6
I469
aI56
aI0
aa(lp7
I919
aI157
aI0
aa(lp8
I468
aI67
aI0
aa(lp9
I459
aI91
aI0
aa(lp10
I446
aI55
aI0
aa(lp11
I161
aI40
aI0
aa(lp12
I487
aI77
aI0
aa.