(lp1
(lp2
I428
aI82
aI0
aa(lp3
I416
aI68
aI0
aa(lp4
I453
aI79
aI0
aa(lp5
I442
aI79
aI0
aa(lp6
I417
aI74
aI0
aa(lp7
I444
aI92
aI0
aa(lp8
I451
aI74
aI0
aa(lp9
I466
aI87
aI0
aa(lp10
I937
aI151
aI0
aa(lp11
I457
aI75
aI0
aa(lp12
I471
aI83
aI0
aa(lp13
I450
aI66
aI0
aa(lp14
I423
aI77
aI0
aa(lp15
I463
aI68
aI0
aa(lp16
I492
aI86
aI0
aa(lp17
I387
aI63
aI0
aa(lp18
I454
aI72
aI0
aa(lp19
I462
aI79
aI0
aa(lp20
I955
aI174
aI0
aa.