(lp1
(lp2
I3
aI2
aI0
aa(lp3
I0
aI0
aI0
aa(lp4
I3
aI1
aI0
aa(lp5
I6
aI3
aI0
aa(lp6
I4
aI2
aI0
aa(lp7
I6
aI4
aI0
aa(lp8
I7
aI5
aI0
aa(lp9
I2
aI1
aI0
aa(lp10
I4
aI2
aI0
aa(lp11
I5
aI3
aI0
aa(lp12
I8
aI4
aI0
aa(lp13
I3
aI2
aI0
aa(lp14
I4
aI3
aI0
aa(lp15
I4
aI2
aI0
aa(lp16
I0
aI0
aI0
aa(lp17
I0
aI0
aI0
aa(lp18
I5
aI3
aI0
aa(lp19
I0
aI0
aI0
aa(lp20
I3
aI2
aI0
aa(lp21
I3
aI2
aI0
aa(lp22
I2
aI1
aI0
aa(lp23
I4
aI2
aI0
aa(lp24
I7
aI5
aI0
aa(lp25
I5
aI3
aI0
aa(lp26
I0
aI0
aI0
aa(lp27
I0
aI0
aI0
aa(lp28
I3
aI2
aI0
aa(lp29
I5
aI2
aI0
aa(lp30
I6
aI3
aI0
aa(lp31
I0
aI0
aI0
aa(lp32
I0
aI0
aI0
aa(lp33
I0
aI0
aI0
aa(lp34
I7
aI4
aI0
aa(lp35
I0
aI0
aI0
aa(lp36
I4
aI3
aI0
aa(lp37
I0
aI0
aI0
aa(lp38
I2
aI1
aI0
aa(lp39
I0
aI0
aI0
aa(lp40
I0
aI0
aI0
aa(lp41
I3
aI2
aI0
aa(lp42
I3
aI2
aI0
aa(lp43
I6
aI2
aI0
aa(lp44
I0
aI0
aI0
aa(lp45
I5
aI3
aI0
aa(lp46
I5
aI3
aI0
aa(lp47
I2
aI1
aI0
aa(lp48
I4
aI3
aI0
aa(lp49
I4
aI2
aI0
aa(lp50
I3
aI1
aI0
aa(lp51
I5
aI3
aI0
aa(lp52
I2
aI1
aI0
aa(lp53
I5
aI2
aI0
aa(lp54
I0
aI0
aI0
aa(lp55
I0
aI0
aI0
aa(lp56
I3
aI2
aI0
aa(lp57
I5
aI3
aI0
aa(lp58
I3
aI1
aI0
aa(lp59
I4
aI2
aI0
aa(lp60
I2
aI1
aI0
aa(lp61
I2
aI1
aI0
aa(lp62
I6
aI3
aI0
aa(lp63
I5
aI3
aI0
aa(lp64
I0
aI0
aI0
aa(lp65
I5
aI3
aI0
aa(lp66
I2
aI1
aI0
aa(lp67
I4
aI2
aI0
aa(lp68
I0
aI0
aI0
aa(lp69
I2
aI1
aI0
aa(lp70
I7
aI4
aI0
aa(lp71
I2
aI1
aI0
aa(lp72
I2
aI1
aI0
aa(lp73
I0
aI0
aI0
aa(lp74
I6
aI3
aI0
aa(lp75
I3
aI2
aI0
aa(lp76
I2
aI1
aI0
aa(lp77
I2
aI1
aI0
aa(lp78
I4
aI2
aI0
aa(lp79
I0
aI0
aI0
aa(lp80
I3
aI2
aI0
aa(lp81
I6
aI4
aI0
aa(lp82
I0
aI0
aI0
aa(lp83
I0
aI0
aI0
aa(lp84
I6
aI3
aI0
aa(lp85
I0
aI0
aI0
aa(lp86
I3
aI2
aI0
aa(lp87
I0
aI0
aI0
aa(lp88
I4
aI2
aI0
aa(lp89
I3
aI2
aI0
aa(lp90
I4
aI3
aI0
aa(lp91
I4
aI2
aI0
aa(lp92
I3
aI2
aI0
aa(lp93
I0
aI0
aI0
aa(lp94
I4
aI2
aI0
aa(lp95
I0
aI0
aI0
aa(lp96
I0
aI0
aI0
aa(lp97
I4
aI2
aI0
aa(lp98
I0
aI0
aI0
aa(lp99
I2
aI1
aI0
aa(lp100
I0
aI0
aI0
aa(lp101
I3
aI2
aI0
aa(lp102
I0
aI0
aI0
aa(lp103
I0
aI0
aI0
aa(lp104
I2
aI1
aI0
aa(lp105
I2
aI1
aI0
aa(lp106
I4
aI2
aI0
aa(lp107
I6
aI3
aI0
aa(lp108
I3
aI2
aI0
aa(lp109
I0
aI0
aI0
aa(lp110
I3
aI2
aI0
aa(lp111
I0
aI0
aI0
aa(lp112
I4
aI2
aI0
aa(lp113
I4
aI3
aI0
aa(lp114
I0
aI0
aI0
aa(lp115
I5
aI3
aI0
aa(lp116
I0
aI0
aI0
aa(lp117
I4
aI2
aI0
aa(lp118
I1
aI0
aI0
aa(lp119
I0
aI0
aI0
aa(lp120
I5
aI3
aI0
aa(lp121
I5
aI3
aI0
aa(lp122
I3
aI2
aI0
aa(lp123
I2
aI1
aI0
aa(lp124
I0
aI0
aI0
aa(lp125
I3
aI1
aI0
aa(lp126
I0
aI0
aI0
aa(lp127
I4
aI2
aI0
aa(lp128
I5
aI3
aI0
aa(lp129
I0
aI0
aI0
aa(lp130
I3
aI2
aI0
aa(lp131
I4
aI2
aI0
aa(lp132
I2
aI1
aI0
aa(lp133
I3
aI2
aI0
aa(lp134
I5
aI3
aI0
aa(lp135
I0
aI0
aI0
aa(lp136
I4
aI2
aI0
aa(lp137
I0
aI0
aI0
aa(lp138
I3
aI2
aI0
aa(lp139
I0
aI0
aI0
aa(lp140
I6
aI3
aI0
aa(lp141
I2
aI0
aI0
aa(lp142
I5
aI3
aI0
aa(lp143
I3
aI2
aI0
aa(lp144
I5
aI3
aI0
aa(lp145
I5
aI3
aI0
aa(lp146
I4
aI2
aI0
aa(lp147
I0
aI0
aI0
aa(lp148
I2
aI1
aI0
aa(lp149
I5
aI3
aI0
aa(lp150
I4
aI2
aI0
aa(lp151
I4
aI2
aI0
aa(lp152
I7
aI3
aI0
aa(lp153
I8
aI4
aI0
aa(lp154
I5
aI2
aI0
aa(lp155
I2
aI1
aI0
aa(lp156
I6
aI3
aI0
aa(lp157
I2
aI1
aI0
aa(lp158
I10
aI5
aI0
aa(lp159
I5
aI3
aI0
aa(lp160
I0
aI0
aI0
aa(lp161
I4
aI2
aI0
aa(lp162
I5
aI2
aI0
aa(lp163
I3
aI2
aI0
aa(lp164
I0
aI0
aI0
aa(lp165
I4
aI2
aI0
aa(lp166
I2
aI1
aI0
aa(lp167
I3
aI2
aI0
aa(lp168
I4
aI3
aI0
aa(lp169
I5
aI4
aI0
aa(lp170
I2
aI1
aI0
aa(lp171
I5
aI3
aI0
aa(lp172
I5
aI3
aI0
aa(lp173
I2
aI1
aI0
aa(lp174
I4
aI2
aI0
aa(lp175
I0
aI0
aI0
aa(lp176
I4
aI2
aI0
aa(lp177
I3
aI1
aI0
aa(lp178
I4
aI2
aI0
aa(lp179
I11
aI7
aI0
aa(lp180
I4
aI2
aI0
aa(lp181
I0
aI0
aI0
aa(lp182
I3
aI2
aI0
aa(lp183
I6
aI3
aI0
aa(lp184
I0
aI0
aI0
aa(lp185
I2
aI1
aI0
aa(lp186
I3
aI2
aI0
aa(lp187
I0
aI0
aI0
aa(lp188
I4
aI2
aI0
aa(lp189
I0
aI0
aI0
aa(lp190
I3
aI2
aI0
aa(lp191
I3
aI2
aI0
aa(lp192
I0
aI0
aI0
aa(lp193
I5
aI3
aI0
aa(lp194
I2
aI1
aI0
aa(lp195
I2
aI1
aI0
aa(lp196
I2
aI1
aI0
aa(lp197
I7
aI4
aI0
aa(lp198
I0
aI0
aI0
aa(lp199
I2
aI1
aI0
aa(lp200
I5
aI3
aI0
aa(lp201
I7
aI5
aI0
aa(lp202
I4
aI2
aI0
aa(lp203
I4
aI2
aI0
aa(lp204
I2
aI1
aI0
aa(lp205
I2
aI1
aI0
aa(lp206
I6
aI3
aI0
aa(lp207
I4
aI2
aI0
aa(lp208
I0
aI0
aI0
aa(lp209
I5
aI3
aI0
aa(lp210
I0
aI0
aI0
aa(lp211
I2
aI1
aI0
aa(lp212
I0
aI0
aI0
aa(lp213
I0
aI0
aI0
aa(lp214
I4
aI2
aI0
aa(lp215
I0
aI0
aI0
aa(lp216
I3
aI2
aI0
aa(lp217
I6
aI3
aI0
aa(lp218
I0
aI0
aI0
aa(lp219
I4
aI2
aI0
aa(lp220
I4
aI2
aI0
aa(lp221
I8
aI4
aI0
aa(lp222
I3
aI2
aI0
aa(lp223
I2
aI1
aI0
aa(lp224
I3
aI2
aI0
aa(lp225
I2
aI1
aI0
aa(lp226
I3
aI2
aI0
aa(lp227
I7
aI4
aI0
aa(lp228
I2
aI1
aI0
aa(lp229
I6
aI3
aI0
aa(lp230
I3
aI1
aI0
aa(lp231
I6
aI3
aI0
aa(lp232
I5
aI3
aI0
aa(lp233
I3
aI2
aI0
aa(lp234
I0
aI0
aI0
aa(lp235
I7
aI4
aI0
aa(lp236
I5
aI3
aI0
aa(lp237
I4
aI2
aI0
aa(lp238
I0
aI0
aI0
aa(lp239
I0
aI0
aI0
aa(lp240
I0
aI0
aI0
aa(lp241
I0
aI0
aI0
aa(lp242
I3
aI2
aI0
aa(lp243
I2
aI1
aI0
aa(lp244
I2
aI1
aI0
aa(lp245
I8
aI4
aI0
aa(lp246
I5
aI3
aI0
aa(lp247
I4
aI2
aI0
aa(lp248
I4
aI2
aI0
aa(lp249
I2
aI1
aI0
aa(lp250
I0
aI0
aI0
aa(lp251
I4
aI2
aI0
aa(lp252
I0
aI0
aI0
aa(lp253
I4
aI2
aI0
aa(lp254
I0
aI0
aI0
aa(lp255
I4
aI2
aI0
aa(lp256
I4
aI2
aI0
aa(lp257
I0
aI0
aI0
aa(lp258
I3
aI2
aI0
aa(lp259
I3
aI1
aI0
aa(lp260
I3
aI2
aI0
aa(lp261
I0
aI0
aI0
aa(lp262
I0
aI0
aI0
aa(lp263
I5
aI0
aI0
aa(lp264
I4
aI2
aI0
aa(lp265
I5
aI2
aI0
aa(lp266
I0
aI0
aI0
aa(lp267
I5
aI3
aI0
aa(lp268
I4
aI2
aI0
aa(lp269
I2
aI1
aI0
aa(lp270
I3
aI2
aI0
aa(lp271
I7
aI3
aI0
aa(lp272
I6
aI3
aI0
aa(lp273
I3
aI2
aI0
aa(lp274
I8
aI4
aI0
aa(lp275
I4
aI2
aI0
aa(lp276
I0
aI0
aI0
aa(lp277
I4
aI2
aI0
aa(lp278
I3
aI2
aI0
aa(lp279
I0
aI0
aI0
aa(lp280
I0
aI0
aI0
aa(lp281
I0
aI0
aI0
aa(lp282
I5
aI4
aI0
aa(lp283
I2
aI1
aI0
aa(lp284
I2
aI1
aI0
aa(lp285
I5
aI3
aI0
aa(lp286
I7
aI3
aI0
aa(lp287
I0
aI0
aI0
aa(lp288
I4
aI2
aI0
aa(lp289
I0
aI0
aI0
aa(lp290
I0
aI0
aI0
aa(lp291
I3
aI2
aI0
aa(lp292
I0
aI0
aI0
aa(lp293
I3
aI1
aI0
aa(lp294
I2
aI1
aI0
aa(lp295
I0
aI0
aI0
aa(lp296
I4
aI2
aI0
aa(lp297
I0
aI0
aI0
aa(lp298
I4
aI2
aI0
aa(lp299
I10
aI5
aI0
aa(lp300
I6
aI3
aI0
aa(lp301
I0
aI0
aI0
aa(lp302
I0
aI0
aI0
aa(lp303
I4
aI3
aI0
aa(lp304
I7
aI3
aI0
aa(lp305
I4
aI3
aI0
aa(lp306
I4
aI2
aI0
aa(lp307
I0
aI0
aI0
aa(lp308
I6
aI4
aI0
aa(lp309
I4
aI2
aI0
aa(lp310
I0
aI0
aI0
aa(lp311
I0
aI0
aI0
aa(lp312
I0
aI0
aI0
aa(lp313
I3
aI1
aI0
aa(lp314
I3
aI2
aI0
aa(lp315
I4
aI2
aI0
aa(lp316
I0
aI0
aI0
aa(lp317
I3
aI1
aI0
aa(lp318
I4
aI2
aI0
aa(lp319
I0
aI0
aI0
aa(lp320
I5
aI3
aI0
aa(lp321
I0
aI0
aI0
aa(lp322
I4
aI2
aI0
aa(lp323
I4
aI2
aI0
aa(lp324
I5
aI2
aI0
aa(lp325
I4
aI2
aI0
aa(lp326
I0
aI0
aI0
aa(lp327
I0
aI0
aI0
aa(lp328
I4
aI2
aI0
aa(lp329
I0
aI0
aI0
aa(lp330
I3
aI2
aI0
aa(lp331
I3
aI2
aI0
aa(lp332
I3
aI2
aI0
aa(lp333
I4
aI2
aI0
aa(lp334
I2
aI1
aI0
aa(lp335
I3
aI1
aI0
aa(lp336
I2
aI1
aI0
aa(lp337
I4
aI2
aI0
aa(lp338
I2
aI1
aI0
aa(lp339
I4
aI2
aI0
aa(lp340
I2
aI1
aI0
aa(lp341
I4
aI2
aI0
aa(lp342
I3
aI2
aI0
aa(lp343
I0
aI0
aI0
aa(lp344
I4
aI2
aI0
aa(lp345
I2
aI1
aI0
aa(lp346
I0
aI0
aI0
aa(lp347
I7
aI4
aI0
aa(lp348
I0
aI0
aI0
aa(lp349
I3
aI2
aI0
aa(lp350
I0
aI0
aI0
aa(lp351
I6
aI3
aI0
aa(lp352
I7
aI5
aI0
aa(lp353
I0
aI0
aI0
aa(lp354
I3
aI2
aI0
aa(lp355
I5
aI2
aI0
aa(lp356
I2
aI1
aI0
aa(lp357
I5
aI3
aI0
aa(lp358
I0
aI0
aI0
aa(lp359
I6
aI3
aI0
aa(lp360
I6
aI3
aI0
aa(lp361
I0
aI0
aI0
aa(lp362
I4
aI2
aI0
aa(lp363
I2
aI1
aI0
aa(lp364
I5
aI3
aI0
aa(lp365
I0
aI0
aI0
aa(lp366
I0
aI0
aI0
aa(lp367
I3
aI1
aI0
aa(lp368
I9
aI4
aI0
aa(lp369
I0
aI0
aI0
aa(lp370
I3
aI1
aI0
aa(lp371
I0
aI0
aI0
aa(lp372
I5
aI3
aI0
aa(lp373
I5
aI3
aI0
aa(lp374
I3
aI2
aI0
aa(lp375
I0
aI0
aI0
aa(lp376
I4
aI2
aI0
aa(lp377
I0
aI0
aI0
aa(lp378
I2
aI1
aI0
aa(lp379
I2
aI1
aI0
aa(lp380
I2
aI1
aI0
aa(lp381
I4
aI2
aI0
aa(lp382
I2
aI1
aI0
aa(lp383
I0
aI0
aI0
aa(lp384
I2
aI1
aI0
aa(lp385
I5
aI2
aI0
aa(lp386
I3
aI1
aI0
aa(lp387
I8
aI4
aI0
aa(lp388
I5
aI3
aI0
aa(lp389
I4
aI2
aI0
aa(lp390
I3
aI2
aI0
aa(lp391
I0
aI0
aI0
aa(lp392
I0
aI0
aI0
aa(lp393
I0
aI0
aI0
aa(lp394
I0
aI0
aI0
aa(lp395
I4
aI2
aI0
aa(lp396
I4
aI2
aI0
aa(lp397
I4
aI2
aI0
aa(lp398
I0
aI0
aI0
aa(lp399
I4
aI2
aI0
aa(lp400
I0
aI0
aI0
aa(lp401
I0
aI0
aI0
aa(lp402
I0
aI0
aI0
aa(lp403
I0
aI0
aI0
aa(lp404
I6
aI3
aI0
aa(lp405
I0
aI0
aI0
aa(lp406
I4
aI2
aI0
aa(lp407
I0
aI0
aI0
aa(lp408
I0
aI0
aI0
aa(lp409
I4
aI2
aI0
aa(lp410
I3
aI2
aI0
aa(lp411
I0
aI0
aI0
aa(lp412
I2
aI1
aI0
aa(lp413
I6
aI3
aI0
aa(lp414
I4
aI2
aI0
aa(lp415
I6
aI3
aI0
aa(lp416
I5
aI2
aI0
aa(lp417
I4
aI2
aI0
aa(lp418
I0
aI0
aI0
aa(lp419
I3
aI2
aI0
aa(lp420
I0
aI0
aI0
aa(lp421
I0
aI0
aI0
aa(lp422
I4
aI2
aI0
aa(lp423
I0
aI0
aI0
aa(lp424
I8
aI5
aI0
aa(lp425
I5
aI3
aI0
aa(lp426
I0
aI0
aI0
aa(lp427
I4
aI2
aI0
aa(lp428
I4
aI2
aI0
aa(lp429
I0
aI0
aI0
aa(lp430
I3
aI2
aI0
aa(lp431
I5
aI3
aI0
aa(lp432
I4
aI2
aI0
aa(lp433
I2
aI1
aI0
aa(lp434
I4
aI2
aI0
aa(lp435
I4
aI2
aI0
aa(lp436
I6
aI3
aI0
aa(lp437
I6
aI3
aI0
aa(lp438
I10
aI6
aI0
aa(lp439
I2
aI1
aI0
aa(lp440
I2
aI1
aI0
aa(lp441
I4
aI2
aI0
aa(lp442
I5
aI3
aI0
aa(lp443
I6
aI3
aI0
aa(lp444
I0
aI0
aI0
aa(lp445
I6
aI3
aI0
aa(lp446
I2
aI1
aI0
aa(lp447
I0
aI0
aI0
aa(lp448
I4
aI2
aI0
aa(lp449
I0
aI0
aI0
aa(lp450
I6
aI4
aI0
aa(lp451
I3
aI2
aI0
aa(lp452
I4
aI2
aI0
aa(lp453
I5
aI2
aI0
aa(lp454
I0
aI0
aI0
aa(lp455
I3
aI2
aI0
aa(lp456
I0
aI0
aI0
aa(lp457
I4
aI2
aI0
aa(lp458
I3
aI2
aI0
aa(lp459
I4
aI3
aI0
aa(lp460
I5
aI3
aI0
aa(lp461
I4
aI2
aI0
aa(lp462
I0
aI0
aI0
aa(lp463
I0
aI0
aI0
aa(lp464
I8
aI4
aI0
aa(lp465
I4
aI2
aI0
aa(lp466
I2
aI1
aI0
aa(lp467
I0
aI0
aI0
aa(lp468
I4
aI2
aI0
aa(lp469
I4
aI2
aI0
aa(lp470
I4
aI2
aI0
aa(lp471
I5
aI3
aI0
aa(lp472
I3
aI2
aI0
aa(lp473
I0
aI0
aI0
aa(lp474
I5
aI3
aI0
aa(lp475
I5
aI3
aI0
aa(lp476
I0
aI0
aI0
aa(lp477
I2
aI1
aI0
aa(lp478
I3
aI2
aI0
aa(lp479
I0
aI0
aI0
aa(lp480
I2
aI1
aI0
aa(lp481
I4
aI2
aI0
aa(lp482
I5
aI4
aI0
aa(lp483
I6
aI3
aI0
aa(lp484
I6
aI3
aI0
aa(lp485
I0
aI0
aI0
aa(lp486
I6
aI3
aI0
aa(lp487
I6
aI3
aI0
aa(lp488
I0
aI0
aI0
aa(lp489
I0
aI0
aI0
aa(lp490
I8
aI4
aI0
aa(lp491
I3
aI1
aI0
aa(lp492
I5
aI3
aI0
aa(lp493
I2
aI1
aI0
aa(lp494
I6
aI3
aI0
aa(lp495
I4
aI2
aI0
aa(lp496
I0
aI0
aI0
aa(lp497
I4
aI2
aI0
aa(lp498
I4
aI2
aI0
aa(lp499
I5
aI3
aI0
aa(lp500
I0
aI0
aI0
aa(lp501
I0
aI0
aI0
aa(lp502
I4
aI2
aI0
aa(lp503
I0
aI0
aI0
aa(lp504
I3
aI1
aI0
aa(lp505
I4
aI3
aI0
aa(lp506
I0
aI0
aI0
aa(lp507
I0
aI0
aI0
aa(lp508
I3
aI2
aI0
aa(lp509
I2
aI1
aI0
aa(lp510
I6
aI3
aI0
aa(lp511
I5
aI3
aI0
aa(lp512
I2
aI1
aI0
aa(lp513
I6
aI4
aI0
aa(lp514
I0
aI0
aI0
aa(lp515
I5
aI3
aI0
aa(lp516
I2
aI1
aI0
aa(lp517
I0
aI0
aI0
aa(lp518
I0
aI0
aI0
aa(lp519
I2
aI1
aI0
aa(lp520
I3
aI2
aI0
aa(lp521
I0
aI0
aI0
aa(lp522
I4
aI2
aI0
aa(lp523
I6
aI3
aI0
aa(lp524
I0
aI0
aI0
aa(lp525
I2
aI1
aI0
aa(lp526
I0
aI0
aI0
aa(lp527
I4
aI2
aI0
aa(lp528
I0
aI0
aI0
aa(lp529
I0
aI0
aI0
aa(lp530
I0
aI0
aI0
aa(lp531
I3
aI2
aI0
aa(lp532
I3
aI1
aI0
aa(lp533
I7
aI4
aI0
aa(lp534
I0
aI0
aI0
aa(lp535
I0
aI0
aI0
aa(lp536
I0
aI0
aI0
aa(lp537
I3
aI1
aI0
aa(lp538
I5
aI3
aI0
aa(lp539
I4
aI2
aI0
aa(lp540
I3
aI2
aI0
aa(lp541
I4
aI2
aI0
aa(lp542
I4
aI2
aI0
aa(lp543
I0
aI0
aI0
aa(lp544
I6
aI3
aI0
aa(lp545
I6
aI3
aI0
aa(lp546
I4
aI2
aI0
aa(lp547
I10
aI6
aI0
aa(lp548
I6
aI3
aI0
aa(lp549
I0
aI0
aI0
aa(lp550
I7
aI4
aI0
aa(lp551
I0
aI0
aI0
aa(lp552
I0
aI0
aI0
aa(lp553
I2
aI1
aI0
aa(lp554
I0
aI0
aI0
aa(lp555
I4
aI2
aI0
aa(lp556
I0
aI0
aI0
aa(lp557
I4
aI2
aI0
aa(lp558
I4
aI2
aI0
aa(lp559
I4
aI3
aI0
aa(lp560
I0
aI0
aI0
aa(lp561
I5
aI3
aI0
aa(lp562
I4
aI2
aI0
aa(lp563
I4
aI2
aI0
aa(lp564
I4
aI2
aI0
aa(lp565
I4
aI2
aI0
aa(lp566
I0
aI0
aI0
aa(lp567
I2
aI1
aI0
aa(lp568
I4
aI2
aI0
aa(lp569
I0
aI0
aI0
aa(lp570
I2
aI1
aI0
aa(lp571
I4
aI2
aI0
aa(lp572
I2
aI1
aI0
aa(lp573
I0
aI0
aI0
aa(lp574
I3
aI2
aI0
aa(lp575
I4
aI2
aI0
aa(lp576
I2
aI1
aI0
aa(lp577
I4
aI2
aI0
aa(lp578
I4
aI3
aI0
aa(lp579
I4
aI2
aI0
aa(lp580
I3
aI2
aI0
aa(lp581
I6
aI4
aI0
aa(lp582
I0
aI0
aI0
aa(lp583
I0
aI0
aI0
aa(lp584
I3
aI2
aI0
aa(lp585
I2
aI1
aI0
aa(lp586
I0
aI0
aI0
aa(lp587
I0
aI0
aI0
aa(lp588
I4
aI2
aI0
aa(lp589
I5
aI3
aI0
aa(lp590
I6
aI4
aI0
aa(lp591
I5
aI4
aI0
aa(lp592
I0
aI0
aI0
aa(lp593
I10
aI7
aI0
aa(lp594
I2
aI1
aI0
aa(lp595
I3
aI2
aI0
aa(lp596
I3
aI2
aI0
aa(lp597
I4
aI2
aI0
aa(lp598
I5
aI3
aI0
aa(lp599
I6
aI4
aI0
aa(lp600
I0
aI0
aI0
aa(lp601
I4
aI2
aI0
aa(lp602
I4
aI2
aI0
aa(lp603
I0
aI0
aI0
aa(lp604
I4
aI2
aI0
aa(lp605
I0
aI0
aI0
aa(lp606
I0
aI0
aI0
aa(lp607
I0
aI0
aI0
aa(lp608
I5
aI3
aI0
aa(lp609
I4
aI2
aI0
aa(lp610
I3
aI2
aI0
aa(lp611
I0
aI0
aI0
aa(lp612
I0
aI0
aI0
aa(lp613
I3
aI2
aI0
aa(lp614
I2
aI1
aI0
aa(lp615
I0
aI0
aI0
aa(lp616
I5
aI3
aI0
aa(lp617
I0
aI0
aI0
aa(lp618
I3
aI2
aI0
aa(lp619
I3
aI2
aI0
aa(lp620
I0
aI0
aI0
aa(lp621
I0
aI0
aI0
aa(lp622
I3
aI2
aI0
aa(lp623
I6
aI4
aI0
aa(lp624
I0
aI0
aI0
aa(lp625
I0
aI0
aI0
aa(lp626
I4
aI2
aI0
aa(lp627
I4
aI2
aI0
aa(lp628
I5
aI3
aI0
aa(lp629
I9
aI5
aI0
aa(lp630
I4
aI2
aI0
aa(lp631
I3
aI2
aI0
aa(lp632
I0
aI0
aI0
aa(lp633
I0
aI0
aI0
aa(lp634
I5
aI3
aI0
aa(lp635
I0
aI0
aI0
aa(lp636
I7
aI4
aI0
aa(lp637
I0
aI0
aI0
aa(lp638
I5
aI3
aI0
aa(lp639
I5
aI3
aI0
aa(lp640
I2
aI1
aI0
aa(lp641
I7
aI4
aI0
aa(lp642
I0
aI0
aI0
aa(lp643
I3
aI2
aI0
aa(lp644
I4
aI2
aI0
aa(lp645
I4
aI2
aI0
aa(lp646
I2
aI1
aI0
aa(lp647
I7
aI4
aI0
aa(lp648
I7
aI3
aI0
aa(lp649
I0
aI0
aI0
aa(lp650
I4
aI2
aI0
aa(lp651
I2
aI1
aI0
aa(lp652
I0
aI0
aI0
aa(lp653
I0
aI0
aI0
aa(lp654
I5
aI3
aI0
aa(lp655
I6
aI4
aI0
aa(lp656
I0
aI0
aI0
aa(lp657
I0
aI0
aI0
aa(lp658
I3
aI2
aI0
aa(lp659
I0
aI0
aI0
aa(lp660
I7
aI4
aI0
aa(lp661
I0
aI0
aI0
aa(lp662
I2
aI1
aI0
aa(lp663
I0
aI0
aI0
aa(lp664
I0
aI0
aI0
aa(lp665
I2
aI1
aI0
aa(lp666
I2
aI1
aI0
aa(lp667
I6
aI3
aI0
aa(lp668
I0
aI0
aI0
aa(lp669
I0
aI0
aI0
aa(lp670
I7
aI4
aI0
aa(lp671
I0
aI0
aI0
aa(lp672
I2
aI1
aI0
aa(lp673
I4
aI2
aI0
aa(lp674
I0
aI0
aI0
aa(lp675
I0
aI0
aI0
aa(lp676
I11
aI5
aI0
aa(lp677
I0
aI0
aI0
aa(lp678
I5
aI2
aI0
aa(lp679
I3
aI2
aI0
aa(lp680
I4
aI1
aI0
aa(lp681
I3
aI2
aI0
aa(lp682
I3
aI2
aI0
aa(lp683
I0
aI0
aI0
aa(lp684
I3
aI2
aI0
aa(lp685
I0
aI0
aI0
aa(lp686
I4
aI2
aI0
aa(lp687
I0
aI0
aI0
aa(lp688
I3
aI1
aI0
aa(lp689
I0
aI0
aI0
aa(lp690
I3
aI2
aI0
aa(lp691
I3
aI2
aI0
aa(lp692
I0
aI0
aI0
aa(lp693
I3
aI2
aI0
aa(lp694
I6
aI5
aI0
aa(lp695
I0
aI0
aI0
aa(lp696
I3
aI2
aI0
aa(lp697
I0
aI0
aI0
aa(lp698
I0
aI0
aI0
aa(lp699
I4
aI2
aI0
aa(lp700
I0
aI0
aI0
aa(lp701
I0
aI0
aI0
aa(lp702
I0
aI0
aI0
aa(lp703
I0
aI0
aI0
aa(lp704
I0
aI0
aI0
aa(lp705
I0
aI0
aI0
aa(lp706
I7
aI4
aI0
aa(lp707
I4
aI3
aI0
aa(lp708
I3
aI2
aI0
aa(lp709
I4
aI3
aI0
aa(lp710
I5
aI3
aI0
aa(lp711
I2
aI1
aI0
aa(lp712
I4
aI2
aI0
aa(lp713
I0
aI0
aI0
aa(lp714
I6
aI3
aI0
aa(lp715
I0
aI0
aI0
aa(lp716
I5
aI2
aI0
aa(lp717
I2
aI1
aI0
aa(lp718
I7
aI4
aI0
aa(lp719
I2
aI1
aI0
aa(lp720
I2
aI1
aI0
aa(lp721
I6
aI3
aI0
aa(lp722
I0
aI0
aI0
aa(lp723
I2
aI1
aI0
aa(lp724
I5
aI3
aI0
aa(lp725
I0
aI0
aI0
aa(lp726
I0
aI0
aI0
aa(lp727
I4
aI2
aI0
aa(lp728
I0
aI0
aI0
aa(lp729
I0
aI0
aI0
aa(lp730
I5
aI3
aI0
aa(lp731
I6
aI3
aI0
aa(lp732
I3
aI2
aI0
aa(lp733
I0
aI0
aI0
aa(lp734
I0
aI0
aI0
aa(lp735
I5
aI3
aI0
aa(lp736
I2
aI1
aI0
aa(lp737
I0
aI0
aI0
aa(lp738
I5
aI2
aI0
aa(lp739
I5
aI3
aI0
aa(lp740
I0
aI0
aI0
aa(lp741
I7
aI4
aI0
aa(lp742
I5
aI3
aI0
aa(lp743
I3
aI2
aI0
aa(lp744
I3
aI2
aI0
aa(lp745
I4
aI2
aI0
aa(lp746
I8
aI4
aI0
aa(lp747
I5
aI3
aI0
aa(lp748
I6
aI4
aI0
aa(lp749
I4
aI2
aI0
aa(lp750
I0
aI0
aI0
aa(lp751
I6
aI4
aI0
aa(lp752
I0
aI0
aI0
aa(lp753
I2
aI1
aI0
aa(lp754
I2
aI1
aI0
aa(lp755
I8
aI4
aI0
aa(lp756
I3
aI2
aI0
aa(lp757
I0
aI0
aI0
aa(lp758
I6
aI3
aI0
aa(lp759
I2
aI1
aI0
aa(lp760
I2
aI1
aI0
aa(lp761
I0
aI0
aI0
aa(lp762
I2
aI1
aI0
aa(lp763
I8
aI6
aI0
aa(lp764
I2
aI1
aI0
aa(lp765
I0
aI0
aI0
aa(lp766
I6
aI4
aI0
aa(lp767
I4
aI3
aI0
aa(lp768
I0
aI0
aI0
aa(lp769
I4
aI2
aI0
aa(lp770
I5
aI3
aI0
aa(lp771
I0
aI0
aI0
aa(lp772
I4
aI3
aI0
aa(lp773
I5
aI3
aI0
aa(lp774
I0
aI0
aI0
aa(lp775
I12
aI7
aI0
aa(lp776
I3
aI2
aI0
aa(lp777
I6
aI3
aI0
aa(lp778
I2
aI1
aI0
aa(lp779
I6
aI3
aI0
aa(lp780
I2
aI1
aI0
aa(lp781
I4
aI2
aI0
aa(lp782
I3
aI2
aI0
aa(lp783
I0
aI0
aI0
aa(lp784
I0
aI0
aI0
aa(lp785
I2
aI1
aI0
aa(lp786
I2
aI1
aI0
aa(lp787
I2
aI1
aI0
aa(lp788
I4
aI2
aI0
aa(lp789
I3
aI1
aI0
aa(lp790
I4
aI2
aI0
aa(lp791
I0
aI0
aI0
aa(lp792
I0
aI0
aI0
aa(lp793
I3
aI2
aI0
aa(lp794
I7
aI5
aI0
aa(lp795
I0
aI0
aI0
aa(lp796
I2
aI1
aI0
aa(lp797
I0
aI0
aI0
aa(lp798
I0
aI0
aI0
aa(lp799
I5
aI3
aI0
aa(lp800
I0
aI0
aI0
aa(lp801
I2
aI1
aI0
aa(lp802
I10
aI5
aI0
aa(lp803
I0
aI0
aI0
aa(lp804
I5
aI2
aI0
aa(lp805
I5
aI4
aI0
aa(lp806
I6
aI3
aI0
aa(lp807
I3
aI2
aI0
aa(lp808
I8
aI4
aI0
aa(lp809
I0
aI0
aI0
aa(lp810
I2
aI1
aI0
aa(lp811
I4
aI2
aI0
aa(lp812
I3
aI2
aI0
aa(lp813
I2
aI1
aI0
aa(lp814
I3
aI2
aI0
aa(lp815
I4
aI2
aI0
aa(lp816
I0
aI0
aI0
aa(lp817
I5
aI3
aI0
aa(lp818
I0
aI0
aI0
aa(lp819
I0
aI0
aI0
aa(lp820
I2
aI1
aI0
aa(lp821
I6
aI4
aI0
aa(lp822
I5
aI3
aI0
aa(lp823
I0
aI0
aI0
aa(lp824
I6
aI4
aI0
aa(lp825
I0
aI0
aI0
aa(lp826
I5
aI2
aI0
aa(lp827
I5
aI2
aI0
aa(lp828
I5
aI3
aI0
aa(lp829
I2
aI1
aI0
aa(lp830
I6
aI3
aI0
aa(lp831
I5
aI3
aI0
aa(lp832
I3
aI2
aI0
aa(lp833
I4
aI2
aI0
aa(lp834
I0
aI0
aI0
aa(lp835
I4
aI2
aI0
aa(lp836
I2
aI1
aI0
aa(lp837
I2
aI1
aI0
aa(lp838
I5
aI2
aI0
aa(lp839
I4
aI2
aI0
aa(lp840
I7
aI4
aI0
aa(lp841
I5
aI4
aI0
aa(lp842
I0
aI0
aI0
aa(lp843
I0
aI0
aI0
aa(lp844
I6
aI3
aI0
aa(lp845
I6
aI3
aI0
aa(lp846
I5
aI3
aI0
aa(lp847
I0
aI0
aI0
aa(lp848
I0
aI0
aI0
aa(lp849
I6
aI3
aI0
aa(lp850
I4
aI3
aI0
aa(lp851
I3
aI2
aI0
aa(lp852
I2
aI1
aI0
aa(lp853
I2
aI1
aI0
aa(lp854
I5
aI3
aI0
aa(lp855
I3
aI1
aI0
aa(lp856
I0
aI0
aI0
aa(lp857
I4
aI2
aI0
aa(lp858
I2
aI1
aI0
aa(lp859
I0
aI0
aI0
aa(lp860
I4
aI1
aI0
aa(lp861
I4
aI2
aI0
aa(lp862
I2
aI1
aI0
aa(lp863
I0
aI0
aI0
aa(lp864
I4
aI2
aI0
aa(lp865
I3
aI1
aI0
aa(lp866
I7
aI5
aI0
aa(lp867
I0
aI0
aI0
aa(lp868
I3
aI1
aI0
aa(lp869
I4
aI2
aI0
aa(lp870
I4
aI2
aI0
aa(lp871
I5
aI3
aI0
aa(lp872
I6
aI3
aI0
aa(lp873
I0
aI0
aI0
aa(lp874
I3
aI2
aI0
aa(lp875
I2
aI1
aI0
aa(lp876
I0
aI0
aI0
aa(lp877
I0
aI0
aI0
aa(lp878
I4
aI2
aI0
aa(lp879
I0
aI0
aI0
aa(lp880
I0
aI0
aI0
aa(lp881
I3
aI2
aI0
aa(lp882
I2
aI1
aI0
aa(lp883
I6
aI4
aI0
aa(lp884
I5
aI2
aI0
aa(lp885
I0
aI0
aI0
aa(lp886
I2
aI1
aI0
aa(lp887
I4
aI2
aI0
aa(lp888
I5
aI3
aI0
aa(lp889
I2
aI1
aI0
aa(lp890
I5
aI3
aI0
aa(lp891
I6
aI2
aI0
aa(lp892
I6
aI3
aI0
aa(lp893
I2
aI1
aI0
aa(lp894
I4
aI2
aI0
aa(lp895
I3
aI1
aI0
aa(lp896
I2
aI1
aI0
aa(lp897
I2
aI1
aI0
aa(lp898
I4
aI2
aI0
aa(lp899
I3
aI2
aI0
aa(lp900
I0
aI0
aI0
aa(lp901
I3
aI2
aI0
aa(lp902
I5
aI2
aI0
aa(lp903
I7
aI2
aI0
aa(lp904
I4
aI2
aI0
aa(lp905
I4
aI2
aI0
aa(lp906
I6
aI3
aI0
aa(lp907
I2
aI1
aI0
aa(lp908
I0
aI0
aI0
aa(lp909
I4
aI2
aI0
aa(lp910
I4
aI2
aI0
aa(lp911
I6
aI3
aI0
aa(lp912
I2
aI1
aI0
aa(lp913
I2
aI1
aI0
aa(lp914
I7
aI4
aI0
aa(lp915
I0
aI0
aI0
aa(lp916
I6
aI3
aI0
aa(lp917
I3
aI2
aI0
aa(lp918
I3
aI2
aI0
aa(lp919
I2
aI1
aI0
aa(lp920
I2
aI1
aI0
aa(lp921
I2
aI1
aI0
aa(lp922
I3
aI2
aI0
aa(lp923
I2
aI1
aI0
aa(lp924
I4
aI2
aI0
aa(lp925
I0
aI0
aI0
aa(lp926
I4
aI2
aI0
aa(lp927
I3
aI2
aI0
aa(lp928
I0
aI0
aI0
aa(lp929
I6
aI2
aI0
aa(lp930
I6
aI4
aI0
aa(lp931
I6
aI3
aI0
aa(lp932
I0
aI0
aI0
aa(lp933
I2
aI1
aI0
aa(lp934
I5
aI3
aI0
aa(lp935
I0
aI0
aI0
aa(lp936
I0
aI0
aI0
aa(lp937
I7
aI4
aI0
aa(lp938
I5
aI3
aI0
aa(lp939
I0
aI0
aI0
aa(lp940
I0
aI0
aI0
aa(lp941
I5
aI2
aI0
aa(lp942
I7
aI4
aI0
aa(lp943
I0
aI0
aI0
aa(lp944
I6
aI3
aI0
aa(lp945
I7
aI3
aI0
aa(lp946
I0
aI0
aI0
aa(lp947
I10
aI6
aI0
aa(lp948
I5
aI3
aI0
aa(lp949
I7
aI4
aI0
aa(lp950
I4
aI2
aI0
aa(lp951
I4
aI2
aI0
aa(lp952
I2
aI1
aI0
aa(lp953
I0
aI0
aI0
aa(lp954
I2
aI1
aI0
aa(lp955
I0
aI0
aI0
aa(lp956
I5
aI3
aI0
aa(lp957
I6
aI3
aI0
aa(lp958
I0
aI0
aI0
aa(lp959
I0
aI0
aI0
aa(lp960
I5
aI3
aI0
aa(lp961
I0
aI0
aI0
aa(lp962
I6
aI3
aI0
aa(lp963
I0
aI0
aI0
aa(lp964
I6
aI3
aI0
aa(lp965
I3
aI1
aI0
aa(lp966
I4
aI2
aI0
aa(lp967
I7
aI3
aI0
aa(lp968
I4
aI2
aI0
aa(lp969
I6
aI4
aI0
aa(lp970
I0
aI0
aI0
aa(lp971
I2
aI1
aI0
aa(lp972
I6
aI3
aI0
aa(lp973
I6
aI3
aI0
aa(lp974
I5
aI3
aI0
aa(lp975
I4
aI2
aI0
aa(lp976
I0
aI0
aI0
aa(lp977
I0
aI0
aI0
aa(lp978
I5
aI3
aI0
aa(lp979
I0
aI0
aI0
aa(lp980
I8
aI4
aI0
aa(lp981
I8
aI4
aI0
aa(lp982
I4
aI2
aI0
aa(lp983
I6
aI4
aI0
aa(lp984
I3
aI2
aI0
aa(lp985
I4
aI2
aI0
aa(lp986
I5
aI2
aI0
aa(lp987
I4
aI2
aI0
aa(lp988
I0
aI0
aI0
aa(lp989
I2
aI1
aI0
aa(lp990
I3
aI2
aI0
aa(lp991
I2
aI1
aI0
aa(lp992
I3
aI2
aI0
aa(lp993
I2
aI1
aI0
aa(lp994
I3
aI2
aI0
aa(lp995
I2
aI1
aI0
aa(lp996
I5
aI2
aI0
aa(lp997
I4
aI2
aI0
aa(lp998
I0
aI0
aI0
aa(lp999
I3
aI2
aI0
aa(lp1000
I3
aI2
aI0
aa(lp1001
I0
aI0
aI0
aa(lp1002
I2
aI1
aI0
aa(lp1003
I0
aI0
aI0
aa(lp1004
I3
aI1
aI0
aa(lp1005
I0
aI0
aI0
aa(lp1006
I4
aI2
aI0
aa(lp1007
I3
aI2
aI0
aa(lp1008
I2
aI1
aI0
aa(lp1009
I2
aI1
aI0
aa(lp1010
I4
aI2
aI0
aa(lp1011
I3
aI2
aI0
aa(lp1012
I4
aI2
aI0
aa(lp1013
I5
aI3
aI0
aa(lp1014
I0
aI0
aI0
aa(lp1015
I0
aI0
aI0
aa(lp1016
I5
aI3
aI0
aa(lp1017
I0
aI0
aI0
aa(lp1018
I0
aI0
aI0
aa(lp1019
I3
aI2
aI0
aa(lp1020
I5
aI3
aI0
aa(lp1021
I0
aI0
aI0
aa(lp1022
I4
aI2
aI0
aa(lp1023
I0
aI0
aI0
aa(lp1024
I0
aI0
aI0
aa(lp1025
I0
aI0
aI0
aa(lp1026
I0
aI0
aI0
aa(lp1027
I5
aI3
aI0
aa(lp1028
I0
aI0
aI0
aa(lp1029
I4
aI2
aI0
aa(lp1030
I3
aI1
aI0
aa(lp1031
I3
aI1
aI0
aa(lp1032
I2
aI1
aI0
aa(lp1033
I3
aI2
aI0
aa(lp1034
I4
aI2
aI0
aa(lp1035
I4
aI3
aI0
aa(lp1036
I7
aI4
aI0
aa(lp1037
I7
aI5
aI0
aa(lp1038
I0
aI0
aI0
aa(lp1039
I4
aI2
aI0
aa(lp1040
I0
aI0
aI0
aa(lp1041
I5
aI3
aI0
aa(lp1042
I0
aI0
aI0
aa(lp1043
I4
aI2
aI0
aa(lp1044
I9
aI5
aI0
aa(lp1045
I4
aI2
aI0
aa(lp1046
I7
aI3
aI0
aa(lp1047
I2
aI1
aI0
aa(lp1048
I3
aI1
aI0
aa(lp1049
I4
aI2
aI0
aa(lp1050
I10
aI5
aI0
aa(lp1051
I0
aI0
aI0
aa(lp1052
I7
aI5
aI0
aa(lp1053
I0
aI0
aI0
aa(lp1054
I10
aI5
aI0
aa(lp1055
I2
aI1
aI0
aa(lp1056
I3
aI2
aI0
aa(lp1057
I0
aI0
aI0
aa(lp1058
I0
aI0
aI0
aa(lp1059
I4
aI2
aI0
aa(lp1060
I4
aI2
aI0
aa(lp1061
I2
aI1
aI0
aa(lp1062
I0
aI0
aI0
aa(lp1063
I2
aI1
aI0
aa(lp1064
I0
aI0
aI0
aa(lp1065
I6
aI3
aI0
aa(lp1066
I5
aI2
aI0
aa(lp1067
I0
aI0
aI0
aa(lp1068
I0
aI0
aI0
aa(lp1069
I0
aI0
aI0
aa(lp1070
I0
aI0
aI0
aa(lp1071
I5
aI3
aI0
aa(lp1072
I3
aI2
aI0
aa(lp1073
I2
aI1
aI0
aa(lp1074
I2
aI1
aI0
aa(lp1075
I0
aI0
aI0
aa(lp1076
I3
aI2
aI0
aa(lp1077
I0
aI0
aI0
aa(lp1078
I3
aI2
aI0
aa(lp1079
I4
aI2
aI0
aa(lp1080
I7
aI3
aI0
aa(lp1081
I0
aI0
aI0
aa(lp1082
I2
aI1
aI0
aa(lp1083
I0
aI0
aI0
aa(lp1084
I0
aI0
aI0
aa(lp1085
I0
aI0
aI0
aa(lp1086
I6
aI4
aI0
aa(lp1087
I5
aI2
aI0
aa(lp1088
I0
aI0
aI0
aa(lp1089
I4
aI2
aI0
aa(lp1090
I5
aI2
aI0
aa(lp1091
I4
aI2
aI0
aa(lp1092
I4
aI2
aI0
aa(lp1093
I8
aI5
aI0
aa(lp1094
I2
aI1
aI0
aa(lp1095
I0
aI0
aI0
aa(lp1096
I4
aI2
aI0
aa(lp1097
I8
aI4
aI0
aa(lp1098
I0
aI0
aI0
aa(lp1099
I0
aI0
aI0
aa(lp1100
I0
aI0
aI0
aa(lp1101
I4
aI2
aI0
aa(lp1102
I9
aI5
aI0
aa(lp1103
I4
aI2
aI0
aa(lp1104
I5
aI3
aI0
aa(lp1105
I0
aI0
aI0
aa(lp1106
I0
aI0
aI0
aa(lp1107
I2
aI1
aI0
aa(lp1108
I0
aI0
aI0
aa(lp1109
I3
aI2
aI0
aa(lp1110
I3
aI2
aI0
aa(lp1111
I7
aI4
aI0
aa(lp1112
I0
aI0
aI0
aa(lp1113
I0
aI0
aI0
aa(lp1114
I0
aI0
aI0
aa(lp1115
I0
aI0
aI0
aa(lp1116
I0
aI0
aI0
aa(lp1117
I0
aI0
aI0
aa(lp1118
I4
aI2
aI0
aa(lp1119
I3
aI1
aI0
aa(lp1120
I4
aI2
aI0
aa(lp1121
I10
aI6
aI0
aa(lp1122
I6
aI5
aI0
aa(lp1123
I0
aI0
aI0
aa(lp1124
I0
aI0
aI0
aa(lp1125
I4
aI2
aI0
aa(lp1126
I0
aI0
aI0
aa(lp1127
I5
aI3
aI0
aa(lp1128
I0
aI0
aI0
aa(lp1129
I4
aI3
aI0
aa(lp1130
I4
aI2
aI0
aa(lp1131
I5
aI3
aI0
aa(lp1132
I4
aI2
aI0
aa(lp1133
I0
aI0
aI0
aa(lp1134
I5
aI3
aI0
aa(lp1135
I7
aI5
aI0
aa(lp1136
I2
aI1
aI0
aa(lp1137
I0
aI0
aI0
aa(lp1138
I0
aI0
aI0
aa(lp1139
I5
aI3
aI0
aa(lp1140
I5
aI3
aI0
aa(lp1141
I4
aI2
aI0
aa(lp1142
I4
aI2
aI0
aa(lp1143
I2
aI1
aI0
aa(lp1144
I4
aI2
aI0
aa(lp1145
I4
aI2
aI0
aa(lp1146
I0
aI0
aI0
aa(lp1147
I0
aI0
aI0
aa(lp1148
I0
aI0
aI0
aa(lp1149
I4
aI2
aI0
aa(lp1150
I0
aI0
aI0
aa(lp1151
I3
aI2
aI0
aa(lp1152
I2
aI1
aI0
aa(lp1153
I3
aI1
aI0
aa(lp1154
I2
aI1
aI0
aa(lp1155
I13
aI8
aI0
aa(lp1156
I0
aI0
aI0
aa(lp1157
I0
aI0
aI0
aa(lp1158
I6
aI3
aI0
aa(lp1159
I0
aI0
aI0
aa(lp1160
I0
aI0
aI0
aa(lp1161
I5
aI3
aI0
aa(lp1162
I2
aI1
aI0
aa(lp1163
I3
aI2
aI0
aa(lp1164
I9
aI4
aI0
aa(lp1165
I12
aI5
aI0
aa(lp1166
I4
aI2
aI0
aa(lp1167
I0
aI0
aI0
aa(lp1168
I2
aI1
aI0
aa(lp1169
I0
aI0
aI0
aa(lp1170
I5
aI3
aI0
aa(lp1171
I0
aI0
aI0
aa(lp1172
I4
aI3
aI0
aa(lp1173
I7
aI4
aI0
aa(lp1174
I0
aI0
aI0
aa(lp1175
I0
aI0
aI0
aa(lp1176
I6
aI2
aI0
aa(lp1177
I4
aI2
aI0
aa(lp1178
I0
aI0
aI0
aa(lp1179
I0
aI0
aI0
aa(lp1180
I0
aI0
aI0
aa(lp1181
I5
aI3
aI0
aa(lp1182
I2
aI1
aI0
aa(lp1183
I3
aI2
aI0
aa(lp1184
I0
aI0
aI0
aa(lp1185
I5
aI3
aI0
aa(lp1186
I5
aI2
aI0
aa(lp1187
I4
aI2
aI0
aa(lp1188
I0
aI0
aI0
aa(lp1189
I2
aI1
aI0
aa(lp1190
I5
aI3
aI0
aa(lp1191
I0
aI0
aI0
aa(lp1192
I4
aI2
aI0
aa(lp1193
I0
aI0
aI0
aa(lp1194
I0
aI0
aI0
aa(lp1195
I6
aI4
aI0
aa(lp1196
I4
aI2
aI0
aa(lp1197
I0
aI0
aI0
aa(lp1198
I4
aI2
aI0
aa(lp1199
I3
aI2
aI0
aa(lp1200
I0
aI0
aI0
aa(lp1201
I4
aI2
aI0
aa(lp1202
I0
aI0
aI0
aa(lp1203
I4
aI2
aI0
aa(lp1204
I5
aI3
aI0
aa(lp1205
I0
aI0
aI0
aa(lp1206
I6
aI3
aI0
aa(lp1207
I2
aI1
aI0
aa(lp1208
I0
aI0
aI0
aa(lp1209
I7
aI2
aI0
aa(lp1210
I4
aI3
aI0
aa(lp1211
I2
aI1
aI0
aa(lp1212
I4
aI2
aI0
aa(lp1213
I0
aI0
aI0
aa(lp1214
I4
aI3
aI0
aa(lp1215
I3
aI2
aI0
aa(lp1216
I0
aI0
aI0
aa(lp1217
I2
aI1
aI0
aa(lp1218
I0
aI0
aI0
aa(lp1219
I0
aI0
aI0
aa(lp1220
I6
aI4
aI0
aa(lp1221
I6
aI4
aI0
aa(lp1222
I4
aI2
aI0
aa(lp1223
I4
aI1
aI0
aa(lp1224
I2
aI1
aI0
aa(lp1225
I0
aI0
aI0
aa(lp1226
I3
aI2
aI0
aa(lp1227
I0
aI0
aI0
aa(lp1228
I5
aI3
aI0
aa(lp1229
I4
aI2
aI0
aa(lp1230
I7
aI4
aI0
aa(lp1231
I0
aI0
aI0
aa(lp1232
I7
aI3
aI0
aa(lp1233
I2
aI1
aI0
aa(lp1234
I4
aI2
aI0
aa(lp1235
I0
aI0
aI0
aa(lp1236
I2
aI1
aI0
aa(lp1237
I4
aI2
aI0
aa(lp1238
I4
aI2
aI0
aa(lp1239
I7
aI5
aI0
aa(lp1240
I2
aI1
aI0
aa(lp1241
I0
aI0
aI0
aa(lp1242
I0
aI0
aI0
aa(lp1243
I0
aI0
aI0
aa(lp1244
I2
aI1
aI0
aa(lp1245
I5
aI3
aI0
aa(lp1246
I0
aI0
aI0
aa(lp1247
I4
aI2
aI0
aa(lp1248
I5
aI3
aI0
aa(lp1249
I3
aI2
aI0
aa(lp1250
I4
aI2
aI0
aa(lp1251
I5
aI3
aI0
aa(lp1252
I0
aI0
aI0
aa(lp1253
I2
aI1
aI0
aa(lp1254
I4
aI2
aI0
aa(lp1255
I3
aI2
aI0
aa(lp1256
I7
aI4
aI0
aa(lp1257
I3
aI2
aI0
aa(lp1258
I6
aI4
aI0
aa(lp1259
I6
aI4
aI0
aa(lp1260
I0
aI0
aI0
aa(lp1261
I6
aI4
aI0
aa(lp1262
I5
aI3
aI0
aa(lp1263
I8
aI5
aI0
aa(lp1264
I10
aI6
aI0
aa(lp1265
I4
aI2
aI0
aa(lp1266
I0
aI0
aI0
aa(lp1267
I6
aI4
aI0
aa(lp1268
I5
aI4
aI0
aa(lp1269
I6
aI3
aI0
aa(lp1270
I4
aI2
aI0
aa(lp1271
I0
aI0
aI0
aa(lp1272
I5
aI3
aI0
aa(lp1273
I3
aI2
aI0
aa(lp1274
I0
aI0
aI0
aa(lp1275
I0
aI0
aI0
aa(lp1276
I6
aI3
aI0
aa(lp1277
I7
aI4
aI0
aa(lp1278
I0
aI0
aI0
aa(lp1279
I8
aI5
aI0
aa(lp1280
I0
aI0
aI0
aa(lp1281
I0
aI0
aI0
aa(lp1282
I4
aI3
aI0
aa(lp1283
I6
aI2
aI0
aa(lp1284
I8
aI4
aI0
aa(lp1285
I14
aI7
aI0
aa(lp1286
I3
aI2
aI0
aa(lp1287
I5
aI3
aI0
aa(lp1288
I5
aI2
aI0
aa(lp1289
I4
aI2
aI0
aa(lp1290
I3
aI2
aI0
aa(lp1291
I0
aI0
aI0
aa(lp1292
I2
aI1
aI0
aa(lp1293
I3
aI2
aI0
aa(lp1294
I0
aI0
aI0
aa(lp1295
I3
aI2
aI0
aa(lp1296
I5
aI2
aI0
aa(lp1297
I5
aI3
aI0
aa(lp1298
I2
aI1
aI0
aa(lp1299
I0
aI0
aI0
aa(lp1300
I0
aI0
aI0
aa(lp1301
I4
aI2
aI0
aa(lp1302
I0
aI0
aI0
aa(lp1303
I0
aI0
aI0
aa(lp1304
I4
aI2
aI0
aa(lp1305
I5
aI2
aI0
aa(lp1306
I6
aI4
aI0
aa(lp1307
I4
aI2
aI0
aa(lp1308
I8
aI4
aI0
aa(lp1309
I4
aI2
aI0
aa(lp1310
I7
aI4
aI0
aa(lp1311
I3
aI1
aI0
aa(lp1312
I5
aI2
aI0
aa(lp1313
I0
aI0
aI0
aa(lp1314
I6
aI3
aI0
aa(lp1315
I4
aI2
aI0
aa(lp1316
I0
aI0
aI0
aa(lp1317
I9
aI5
aI0
aa(lp1318
I4
aI2
aI0
aa(lp1319
I3
aI1
aI0
aa(lp1320
I0
aI0
aI0
aa(lp1321
I2
aI1
aI0
aa(lp1322
I4
aI2
aI0
aa(lp1323
I0
aI0
aI0
aa(lp1324
I3
aI2
aI0
aa(lp1325
I5
aI3
aI0
aa(lp1326
I2
aI1
aI0
aa(lp1327
I10
aI4
aI0
aa(lp1328
I0
aI0
aI0
aa(lp1329
I0
aI0
aI0
aa(lp1330
I2
aI1
aI0
aa(lp1331
I0
aI0
aI0
aa(lp1332
I6
aI5
aI0
aa(lp1333
I0
aI0
aI0
aa(lp1334
I5
aI3
aI0
aa(lp1335
I0
aI0
aI0
aa(lp1336
I4
aI2
aI0
aa(lp1337
I0
aI0
aI0
aa(lp1338
I2
aI1
aI0
aa(lp1339
I4
aI2
aI0
aa(lp1340
I5
aI3
aI0
aa(lp1341
I0
aI0
aI0
aa(lp1342
I0
aI0
aI0
aa(lp1343
I2
aI1
aI0
aa(lp1344
I0
aI0
aI0
aa(lp1345
I0
aI0
aI0
aa(lp1346
I0
aI0
aI0
aa(lp1347
I0
aI0
aI0
aa(lp1348
I6
aI3
aI0
aa(lp1349
I2
aI1
aI0
aa(lp1350
I2
aI1
aI0
aa(lp1351
I6
aI3
aI0
aa(lp1352
I7
aI5
aI0
aa(lp1353
I8
aI5
aI0
aa(lp1354
I0
aI0
aI0
aa(lp1355
I0
aI0
aI0
aa(lp1356
I0
aI0
aI0
aa(lp1357
I5
aI3
aI0
aa(lp1358
I6
aI3
aI0
aa(lp1359
I0
aI0
aI0
aa(lp1360
I9
aI4
aI0
aa(lp1361
I4
aI2
aI0
aa(lp1362
I0
aI0
aI0
aa(lp1363
I0
aI0
aI0
aa(lp1364
I4
aI2
aI0
aa(lp1365
I0
aI0
aI0
aa(lp1366
I6
aI4
aI0
aa(lp1367
I6
aI4
aI0
aa(lp1368
I4
aI2
aI0
aa(lp1369
I5
aI3
aI0
aa(lp1370
I2
aI1
aI0
aa(lp1371
I4
aI2
aI0
aa(lp1372
I3
aI2
aI0
aa(lp1373
I4
aI2
aI0
aa(lp1374
I8
aI5
aI0
aa(lp1375
I6
aI3
aI0
aa(lp1376
I3
aI1
aI0
aa(lp1377
I2
aI1
aI0
aa(lp1378
I3
aI2
aI0
aa(lp1379
I4
aI2
aI0
aa(lp1380
I0
aI0
aI0
aa(lp1381
I5
aI2
aI0
aa(lp1382
I0
aI0
aI0
aa(lp1383
I0
aI0
aI0
aa(lp1384
I0
aI0
aI0
aa(lp1385
I5
aI3
aI0
aa(lp1386
I5
aI3
aI0
aa(lp1387
I2
aI1
aI0
aa(lp1388
I0
aI0
aI0
aa(lp1389
I0
aI0
aI0
aa(lp1390
I4
aI2
aI0
aa(lp1391
I6
aI2
aI0
aa(lp1392
I4
aI2
aI0
aa(lp1393
I3
aI2
aI0
aa(lp1394
I0
aI0
aI0
aa(lp1395
I0
aI0
aI0
aa(lp1396
I4
aI2
aI0
aa(lp1397
I4
aI2
aI0
aa(lp1398
I0
aI0
aI0
aa(lp1399
I4
aI2
aI0
aa(lp1400
I0
aI0
aI0
aa(lp1401
I3
aI2
aI0
aa(lp1402
I3
aI2
aI0
aa(lp1403
I0
aI0
aI0
aa(lp1404
I4
aI2
aI0
aa(lp1405
I4
aI2
aI0
aa(lp1406
I0
aI0
aI0
aa(lp1407
I2
aI1
aI0
aa(lp1408
I0
aI0
aI0
aa(lp1409
I6
aI3
aI0
aa(lp1410
I7
aI2
aI0
aa(lp1411
I6
aI4
aI0
aa(lp1412
I11
aI6
aI0
aa(lp1413
I0
aI0
aI0
aa(lp1414
I4
aI2
aI0
aa(lp1415
I4
aI2
aI0
aa(lp1416
I4
aI2
aI0
aa(lp1417
I4
aI2
aI0
aa(lp1418
I6
aI3
aI0
aa(lp1419
I6
aI2
aI0
aa(lp1420
I8
aI5
aI0
aa(lp1421
I0
aI0
aI0
aa(lp1422
I4
aI2
aI0
aa(lp1423
I4
aI2
aI0
aa(lp1424
I0
aI0
aI0
aa(lp1425
I0
aI0
aI0
aa(lp1426
I0
aI0
aI0
aa(lp1427
I4
aI1
aI0
aa(lp1428
I3
aI1
aI0
aa(lp1429
I3
aI1
aI0
aa(lp1430
I5
aI4
aI0
aa(lp1431
I5
aI2
aI0
aa(lp1432
I8
aI4
aI0
aa(lp1433
I0
aI0
aI0
aa(lp1434
I4
aI2
aI0
aa(lp1435
I0
aI0
aI0
aa(lp1436
I3
aI2
aI0
aa(lp1437
I5
aI2
aI0
aa(lp1438
I3
aI2
aI0
aa(lp1439
I4
aI2
aI0
aa(lp1440
I4
aI2
aI0
aa(lp1441
I4
aI2
aI0
aa(lp1442
I2
aI1
aI0
aa(lp1443
I5
aI3
aI0
aa(lp1444
I5
aI3
aI0
aa(lp1445
I3
aI2
aI0
aa(lp1446
I5
aI3
aI0
aa(lp1447
I2
aI1
aI0
aa(lp1448
I2
aI1
aI0
aa(lp1449
I0
aI0
aI0
aa(lp1450
I0
aI0
aI0
aa(lp1451
I0
aI0
aI0
aa(lp1452
I3
aI2
aI0
aa(lp1453
I4
aI2
aI0
aa(lp1454
I4
aI2
aI0
aa(lp1455
I2
aI1
aI0
aa(lp1456
I6
aI3
aI0
aa(lp1457
I0
aI0
aI0
aa(lp1458
I0
aI0
aI0
aa(lp1459
I2
aI1
aI0
aa(lp1460
I9
aI5
aI0
aa(lp1461
I0
aI0
aI0
aa(lp1462
I0
aI0
aI0
aa(lp1463
I5
aI3
aI0
aa(lp1464
I0
aI0
aI0
aa(lp1465
I6
aI4
aI0
aa(lp1466
I7
aI3
aI0
aa(lp1467
I2
aI1
aI0
aa(lp1468
I3
aI2
aI0
aa(lp1469
I4
aI3
aI0
aa(lp1470
I5
aI3
aI0
aa(lp1471
I0
aI0
aI0
aa(lp1472
I4
aI2
aI0
aa(lp1473
I0
aI0
aI0
aa(lp1474
I3
aI2
aI0
aa(lp1475
I6
aI4
aI0
aa(lp1476
I0
aI0
aI0
aa(lp1477
I2
aI1
aI0
aa(lp1478
I4
aI2
aI0
aa(lp1479
I0
aI0
aI0
aa(lp1480
I4
aI2
aI0
aa(lp1481
I2
aI1
aI0
aa(lp1482
I5
aI3
aI0
aa(lp1483
I0
aI0
aI0
aa(lp1484
I2
aI1
aI0
aa(lp1485
I0
aI0
aI0
aa(lp1486
I2
aI1
aI0
aa(lp1487
I5
aI2
aI0
aa(lp1488
I5
aI3
aI0
aa(lp1489
I0
aI0
aI0
aa(lp1490
I0
aI0
aI0
aa(lp1491
I6
aI4
aI0
aa(lp1492
I0
aI0
aI0
aa(lp1493
I0
aI0
aI0
aa(lp1494
I0
aI0
aI0
aa(lp1495
I9
aI5
aI0
aa(lp1496
I0
aI0
aI0
aa(lp1497
I2
aI1
aI0
aa(lp1498
I4
aI2
aI0
aa(lp1499
I6
aI3
aI0
aa(lp1500
I3
aI2
aI0
aa(lp1501
I4
aI2
aI0
aa(lp1502
I1
aI0
aI0
aa(lp1503
I0
aI0
aI0
aa(lp1504
I3
aI2
aI0
aa(lp1505
I4
aI1
aI0
aa(lp1506
I0
aI0
aI0
aa(lp1507
I2
aI1
aI0
aa(lp1508
I0
aI0
aI0
aa(lp1509
I6
aI3
aI0
aa(lp1510
I4
aI2
aI0
aa(lp1511
I6
aI3
aI0
aa(lp1512
I4
aI2
aI0
aa(lp1513
I3
aI2
aI0
aa(lp1514
I5
aI3
aI0
aa(lp1515
I5
aI3
aI0
aa(lp1516
I4
aI2
aI0
aa(lp1517
I3
aI2
aI0
aa(lp1518
I5
aI3
aI0
aa(lp1519
I0
aI0
aI0
aa(lp1520
I4
aI2
aI0
aa(lp1521
I0
aI0
aI0
aa(lp1522
I0
aI0
aI0
aa(lp1523
I4
aI2
aI0
aa(lp1524
I6
aI4
aI0
aa(lp1525
I4
aI2
aI0
aa(lp1526
I0
aI0
aI0
aa(lp1527
I6
aI3
aI0
aa(lp1528
I5
aI3
aI0
aa(lp1529
I2
aI1
aI0
aa(lp1530
I2
aI1
aI0
aa(lp1531
I4
aI3
aI0
aa(lp1532
I4
aI2
aI0
aa(lp1533
I6
aI4
aI0
aa(lp1534
I0
aI0
aI0
aa(lp1535
I5
aI3
aI0
aa(lp1536
I4
aI2
aI0
aa(lp1537
I4
aI2
aI0
aa(lp1538
I3
aI2
aI0
aa(lp1539
I4
aI2
aI0
aa(lp1540
I5
aI2
aI0
aa(lp1541
I2
aI1
aI0
aa(lp1542
I0
aI0
aI0
aa(lp1543
I0
aI0
aI0
aa(lp1544
I6
aI2
aI0
aa(lp1545
I3
aI1
aI0
aa(lp1546
I7
aI4
aI0
aa(lp1547
I5
aI2
aI0
aa(lp1548
I5
aI3
aI0
aa(lp1549
I4
aI2
aI0
aa(lp1550
I2
aI1
aI0
aa(lp1551
I7
aI4
aI0
aa(lp1552
I2
aI1
aI0
aa(lp1553
I3
aI2
aI0
aa(lp1554
I4
aI2
aI0
aa(lp1555
I4
aI2
aI0
aa(lp1556
I3
aI1
aI0
aa(lp1557
I0
aI0
aI0
aa(lp1558
I0
aI0
aI0
aa(lp1559
I6
aI3
aI0
aa(lp1560
I0
aI0
aI0
aa(lp1561
I2
aI1
aI0
aa(lp1562
I2
aI1
aI0
aa(lp1563
I2
aI1
aI0
aa(lp1564
I0
aI0
aI0
aa(lp1565
I0
aI0
aI0
aa(lp1566
I5
aI2
aI0
aa(lp1567
I2
aI1
aI0
aa(lp1568
I2
aI1
aI0
aa(lp1569
I4
aI2
aI0
aa(lp1570
I0
aI0
aI0
aa(lp1571
I3
aI2
aI0
aa(lp1572
I3
aI2
aI0
aa(lp1573
I3
aI1
aI0
aa(lp1574
I4
aI2
aI0
aa(lp1575
I6
aI3
aI0
aa(lp1576
I4
aI3
aI0
aa(lp1577
I6
aI3
aI0
aa(lp1578
I4
aI2
aI0
aa(lp1579
I6
aI3
aI0
aa(lp1580
I3
aI2
aI0
aa(lp1581
I2
aI1
aI0
aa(lp1582
I0
aI0
aI0
aa(lp1583
I8
aI5
aI0
aa(lp1584
I6
aI3
aI0
aa(lp1585
I4
aI3
aI0
aa(lp1586
I0
aI0
aI0
aa(lp1587
I3
aI2
aI0
aa(lp1588
I4
aI2
aI0
aa(lp1589
I3
aI2
aI0
aa(lp1590
I0
aI0
aI0
aa(lp1591
I2
aI1
aI0
aa(lp1592
I3
aI1
aI0
aa(lp1593
I2
aI1
aI0
aa(lp1594
I6
aI4
aI0
aa(lp1595
I2
aI1
aI0
aa(lp1596
I3
aI1
aI0
aa(lp1597
I2
aI1
aI0
aa(lp1598
I6
aI4
aI0
aa(lp1599
I0
aI0
aI0
aa(lp1600
I0
aI0
aI0
aa(lp1601
I0
aI0
aI0
aa(lp1602
I0
aI0
aI0
aa(lp1603
I0
aI0
aI0
aa(lp1604
I0
aI0
aI0
aa(lp1605
I0
aI0
aI0
aa(lp1606
I6
aI3
aI0
aa(lp1607
I4
aI2
aI0
aa(lp1608
I2
aI1
aI0
aa(lp1609
I6
aI3
aI0
aa(lp1610
I9
aI6
aI0
aa(lp1611
I2
aI1
aI0
aa(lp1612
I6
aI3
aI0
aa(lp1613
I4
aI2
aI0
aa(lp1614
I8
aI4
aI0
aa(lp1615
I9
aI4
aI0
aa(lp1616
I4
aI2
aI0
aa(lp1617
I5
aI3
aI0
aa(lp1618
I8
aI5
aI0
aa(lp1619
I6
aI4
aI0
aa(lp1620
I0
aI0
aI0
aa(lp1621
I0
aI0
aI0
aa(lp1622
I4
aI2
aI0
aa(lp1623
I0
aI0
aI0
aa(lp1624
I0
aI0
aI0
aa(lp1625
I7
aI4
aI0
aa(lp1626
I2
aI1
aI0
aa(lp1627
I2
aI1
aI0
aa(lp1628
I4
aI2
aI0
aa(lp1629
I5
aI3
aI0
aa(lp1630
I6
aI3
aI0
aa(lp1631
I0
aI0
aI0
aa(lp1632
I0
aI0
aI0
aa(lp1633
I3
aI2
aI0
aa(lp1634
I3
aI1
aI0
aa(lp1635
I6
aI3
aI0
aa(lp1636
I0
aI0
aI0
aa(lp1637
I5
aI3
aI0
aa(lp1638
I5
aI3
aI0
aa(lp1639
I8
aI4
aI0
aa(lp1640
I0
aI0
aI0
aa(lp1641
I0
aI0
aI0
aa(lp1642
I8
aI3
aI0
aa(lp1643
I0
aI0
aI0
aa(lp1644
I0
aI0
aI0
aa(lp1645
I3
aI2
aI0
aa(lp1646
I2
aI1
aI0
aa(lp1647
I9
aI4
aI0
aa(lp1648
I2
aI1
aI0
aa(lp1649
I4
aI2
aI0
aa(lp1650
I7
aI4
aI0
aa(lp1651
I0
aI0
aI0
aa(lp1652
I7
aI4
aI0
aa(lp1653
I0
aI0
aI0
aa(lp1654
I4
aI3
aI0
aa(lp1655
I0
aI0
aI0
aa(lp1656
I5
aI2
aI0
aa(lp1657
I0
aI0
aI0
aa(lp1658
I4
aI2
aI0
aa(lp1659
I4
aI2
aI0
aa(lp1660
I0
aI0
aI0
aa(lp1661
I0
aI0
aI0
aa(lp1662
I0
aI0
aI0
aa(lp1663
I0
aI0
aI0
aa(lp1664
I7
aI3
aI0
aa(lp1665
I0
aI0
aI0
aa(lp1666
I0
aI0
aI0
aa(lp1667
I4
aI2
aI0
aa(lp1668
I3
aI2
aI0
aa(lp1669
I2
aI1
aI0
aa(lp1670
I4
aI2
aI0
aa(lp1671
I3
aI2
aI0
aa(lp1672
I4
aI2
aI0
aa(lp1673
I2
aI1
aI0
aa(lp1674
I5
aI1
aI0
aa(lp1675
I0
aI0
aI0
aa(lp1676
I6
aI4
aI0
aa(lp1677
I5
aI3
aI0
aa(lp1678
I5
aI3
aI0
aa(lp1679
I5
aI3
aI0
aa(lp1680
I4
aI2
aI0
aa(lp1681
I0
aI0
aI0
aa(lp1682
I4
aI2
aI0
aa(lp1683
I4
aI2
aI0
aa(lp1684
I0
aI0
aI0
aa(lp1685
I0
aI0
aI0
aa(lp1686
I2
aI1
aI0
aa(lp1687
I5
aI3
aI0
aa(lp1688
I5
aI3
aI0
aa(lp1689
I4
aI2
aI0
aa(lp1690
I0
aI0
aI0
aa(lp1691
I0
aI0
aI0
aa(lp1692
I8
aI4
aI0
aa(lp1693
I5
aI2
aI0
aa(lp1694
I0
aI0
aI0
aa(lp1695
I2
aI1
aI0
aa(lp1696
I7
aI2
aI0
aa(lp1697
I5
aI2
aI0
aa(lp1698
I6
aI3
aI0
aa(lp1699
I5
aI3
aI0
aa(lp1700
I5
aI3
aI0
aa(lp1701
I5
aI2
aI0
aa(lp1702
I2
aI1
aI0
aa(lp1703
I0
aI0
aI0
aa(lp1704
I4
aI2
aI0
aa(lp1705
I4
aI2
aI0
aa(lp1706
I5
aI3
aI0
aa(lp1707
I2
aI1
aI0
aa(lp1708
I4
aI2
aI0
aa(lp1709
I8
aI4
aI0
aa(lp1710
I0
aI0
aI0
aa(lp1711
I2
aI1
aI0
aa(lp1712
I0
aI0
aI0
aa(lp1713
I6
aI4
aI0
aa(lp1714
I3
aI2
aI0
aa(lp1715
I2
aI1
aI0
aa(lp1716
I0
aI0
aI0
aa(lp1717
I0
aI0
aI0
aa(lp1718
I3
aI2
aI0
aa(lp1719
I2
aI1
aI0
aa(lp1720
I5
aI2
aI0
aa(lp1721
I2
aI1
aI0
aa(lp1722
I0
aI0
aI0
aa(lp1723
I6
aI3
aI0
aa(lp1724
I4
aI2
aI0
aa(lp1725
I4
aI2
aI0
aa(lp1726
I3
aI2
aI0
aa(lp1727
I8
aI5
aI0
aa(lp1728
I4
aI2
aI0
aa(lp1729
I0
aI0
aI0
aa(lp1730
I0
aI0
aI0
aa(lp1731
I4
aI2
aI0
aa(lp1732
I2
aI1
aI0
aa(lp1733
I6
aI4
aI0
aa(lp1734
I6
aI3
aI0
aa(lp1735
I0
aI0
aI0
aa(lp1736
I0
aI0
aI0
aa(lp1737
I4
aI2
aI0
aa(lp1738
I8
aI3
aI0
aa(lp1739
I0
aI0
aI0
aa(lp1740
I7
aI5
aI0
aa(lp1741
I4
aI2
aI0
aa(lp1742
I2
aI1
aI0
aa(lp1743
I0
aI0
aI0
aa(lp1744
I4
aI2
aI0
aa(lp1745
I7
aI4
aI0
aa(lp1746
I2
aI1
aI0
aa(lp1747
I4
aI2
aI0
aa(lp1748
I4
aI2
aI0
aa(lp1749
I6
aI3
aI0
aa(lp1750
I3
aI2
aI0
aa(lp1751
I2
aI1
aI0
aa(lp1752
I2
aI1
aI0
aa(lp1753
I2
aI1
aI0
aa(lp1754
I2
aI1
aI0
aa(lp1755
I3
aI2
aI0
aa(lp1756
I4
aI2
aI0
aa(lp1757
I0
aI0
aI0
aa(lp1758
I0
aI0
aI0
aa(lp1759
I6
aI3
aI0
aa(lp1760
I4
aI2
aI0
aa(lp1761
I2
aI1
aI0
aa(lp1762
I0
aI0
aI0
aa(lp1763
I0
aI0
aI0
aa(lp1764
I4
aI2
aI0
aa(lp1765
I6
aI3
aI0
aa(lp1766
I5
aI3
aI0
aa(lp1767
I0
aI0
aI0
aa(lp1768
I2
aI1
aI0
aa(lp1769
I2
aI1
aI0
aa(lp1770
I7
aI3
aI0
aa(lp1771
I5
aI3
aI0
aa(lp1772
I5
aI3
aI0
aa(lp1773
I5
aI3
aI0
aa(lp1774
I4
aI2
aI0
aa(lp1775
I3
aI1
aI0
aa(lp1776
I4
aI2
aI0
aa(lp1777
I3
aI1
aI0
aa(lp1778
I6
aI3
aI0
aa(lp1779
I4
aI2
aI0
aa(lp1780
I0
aI0
aI0
aa(lp1781
I5
aI3
aI0
aa(lp1782
I0
aI0
aI0
aa(lp1783
I3
aI1
aI0
aa(lp1784
I5
aI2
aI0
aa(lp1785
I2
aI1
aI0
aa(lp1786
I5
aI3
aI0
aa(lp1787
I4
aI2
aI0
aa(lp1788
I5
aI3
aI0
aa(lp1789
I8
aI5
aI0
aa(lp1790
I0
aI0
aI0
aa(lp1791
I2
aI1
aI0
aa(lp1792
I0
aI0
aI0
aa(lp1793
I5
aI3
aI0
aa(lp1794
I4
aI3
aI0
aa(lp1795
I6
aI3
aI0
aa(lp1796
I5
aI3
aI0
aa(lp1797
I4
aI2
aI0
aa(lp1798
I7
aI4
aI0
aa(lp1799
I4
aI2
aI0
aa(lp1800
I7
aI3
aI0
aa(lp1801
I0
aI0
aI0
aa(lp1802
I0
aI0
aI0
aa(lp1803
I3
aI2
aI0
aa(lp1804
I4
aI2
aI0
aa(lp1805
I9
aI5
aI0
aa(lp1806
I6
aI4
aI0
aa(lp1807
I0
aI0
aI0
aa(lp1808
I5
aI3
aI0
aa(lp1809
I4
aI3
aI0
aa(lp1810
I4
aI2
aI0
aa(lp1811
I4
aI2
aI0
aa(lp1812
I0
aI0
aI0
aa(lp1813
I9
aI5
aI0
aa(lp1814
I4
aI2
aI0
aa(lp1815
I3
aI2
aI0
aa(lp1816
I7
aI3
aI0
aa(lp1817
I6
aI4
aI0
aa(lp1818
I4
aI2
aI0
aa(lp1819
I0
aI0
aI0
aa(lp1820
I2
aI1
aI0
aa(lp1821
I0
aI0
aI0
aa(lp1822
I0
aI0
aI0
aa(lp1823
I2
aI1
aI0
aa(lp1824
I2
aI1
aI0
aa(lp1825
I4
aI2
aI0
aa(lp1826
I6
aI4
aI0
aa(lp1827
I3
aI2
aI0
aa(lp1828
I0
aI0
aI0
aa(lp1829
I0
aI0
aI0
aa(lp1830
I0
aI0
aI0
aa(lp1831
I4
aI2
aI0
aa(lp1832
I4
aI2
aI0
aa(lp1833
I5
aI2
aI0
aa(lp1834
I0
aI0
aI0
aa(lp1835
I0
aI0
aI0
aa(lp1836
I0
aI0
aI0
aa(lp1837
I0
aI0
aI0
aa(lp1838
I8
aI5
aI0
aa(lp1839
I7
aI4
aI0
aa(lp1840
I0
aI0
aI0
aa(lp1841
I5
aI3
aI0
aa(lp1842
I0
aI0
aI0
aa(lp1843
I5
aI2
aI0
aa(lp1844
I0
aI0
aI0
aa(lp1845
I0
aI0
aI0
aa(lp1846
I4
aI3
aI0
aa(lp1847
I0
aI0
aI0
aa(lp1848
I2
aI1
aI0
aa(lp1849
I4
aI2
aI0
aa(lp1850
I5
aI2
aI0
aa(lp1851
I0
aI0
aI0
aa(lp1852
I3
aI1
aI0
aa(lp1853
I2
aI1
aI0
aa(lp1854
I5
aI3
aI0
aa(lp1855
I0
aI0
aI0
aa(lp1856
I0
aI0
aI0
aa(lp1857
I2
aI1
aI0
aa(lp1858
I4
aI2
aI0
aa(lp1859
I0
aI0
aI0
aa(lp1860
I5
aI2
aI0
aa(lp1861
I4
aI2
aI0
aa(lp1862
I0
aI0
aI0
aa(lp1863
I0
aI0
aI0
aa(lp1864
I6
aI3
aI0
aa(lp1865
I2
aI1
aI0
aa(lp1866
I6
aI2
aI0
aa(lp1867
I0
aI0
aI0
aa(lp1868
I5
aI3
aI0
aa(lp1869
I4
aI2
aI0
aa(lp1870
I0
aI0
aI0
aa(lp1871
I3
aI1
aI0
aa(lp1872
I3
aI2
aI0
aa(lp1873
I5
aI3
aI0
aa(lp1874
I4
aI2
aI0
aa(lp1875
I8
aI5
aI0
aa(lp1876
I3
aI2
aI0
aa(lp1877
I0
aI0
aI0
aa(lp1878
I4
aI2
aI0
aa(lp1879
I5
aI2
aI0
aa(lp1880
I0
aI0
aI0
aa(lp1881
I0
aI0
aI0
aa(lp1882
I4
aI2
aI0
aa(lp1883
I6
aI3
aI0
aa(lp1884
I4
aI3
aI0
aa(lp1885
I4
aI2
aI0
aa(lp1886
I3
aI1
aI0
aa(lp1887
I4
aI2
aI0
aa(lp1888
I0
aI0
aI0
aa(lp1889
I4
aI3
aI0
aa(lp1890
I0
aI0
aI0
aa(lp1891
I6
aI4
aI0
aa(lp1892
I3
aI2
aI0
aa(lp1893
I4
aI2
aI0
aa(lp1894
I2
aI1
aI0
aa(lp1895
I2
aI1
aI0
aa(lp1896
I8
aI4
aI0
aa(lp1897
I7
aI4
aI0
aa(lp1898
I0
aI0
aI0
aa(lp1899
I4
aI2
aI0
aa(lp1900
I0
aI0
aI0
aa(lp1901
I4
aI3
aI0
aa(lp1902
I4
aI2
aI0
aa(lp1903
I3
aI2
aI0
aa(lp1904
I0
aI0
aI0
aa(lp1905
I6
aI4
aI0
aa(lp1906
I0
aI0
aI0
aa(lp1907
I0
aI0
aI0
aa(lp1908
I4
aI3
aI0
aa(lp1909
I3
aI2
aI0
aa(lp1910
I0
aI0
aI0
aa(lp1911
I2
aI1
aI0
aa(lp1912
I7
aI3
aI0
aa(lp1913
I4
aI2
aI0
aa(lp1914
I9
aI5
aI0
aa(lp1915
I6
aI3
aI0
aa(lp1916
I4
aI2
aI0
aa(lp1917
I6
aI4
aI0
aa(lp1918
I4
aI1
aI0
aa(lp1919
I9
aI5
aI0
aa(lp1920
I0
aI0
aI0
aa(lp1921
I2
aI1
aI0
aa(lp1922
I5
aI2
aI0
aa(lp1923
I4
aI3
aI0
aa(lp1924
I4
aI2
aI0
aa(lp1925
I0
aI0
aI0
aa(lp1926
I2
aI1
aI0
aa(lp1927
I7
aI4
aI0
aa(lp1928
I0
aI0
aI0
aa(lp1929
I2
aI1
aI0
aa(lp1930
I4
aI3
aI0
aa(lp1931
I3
aI2
aI0
aa(lp1932
I6
aI4
aI0
aa(lp1933
I0
aI0
aI0
aa(lp1934
I9
aI5
aI0
aa(lp1935
I8
aI4
aI0
aa(lp1936
I0
aI0
aI0
aa(lp1937
I2
aI1
aI0
aa(lp1938
I0
aI0
aI0
aa(lp1939
I4
aI2
aI0
aa(lp1940
I0
aI0
aI0
aa(lp1941
I4
aI3
aI0
aa(lp1942
I3
aI2
aI0
aa(lp1943
I4
aI2
aI0
aa(lp1944
I2
aI1
aI0
aa(lp1945
I6
aI3
aI0
aa(lp1946
I3
aI2
aI0
aa(lp1947
I0
aI0
aI0
aa(lp1948
I2
aI1
aI0
aa(lp1949
I4
aI2
aI0
aa(lp1950
I5
aI3
aI0
aa(lp1951
I4
aI2
aI0
aa(lp1952
I6
aI3
aI0
aa(lp1953
I2
aI1
aI0
aa(lp1954
I4
aI2
aI0
aa(lp1955
I4
aI1
aI0
aa(lp1956
I4
aI3
aI0
aa(lp1957
I0
aI0
aI0
aa(lp1958
I3
aI2
aI0
aa(lp1959
I3
aI2
aI0
aa(lp1960
I0
aI0
aI0
aa(lp1961
I3
aI2
aI0
aa(lp1962
I0
aI0
aI0
aa(lp1963
I4
aI2
aI0
aa(lp1964
I3
aI1
aI0
aa(lp1965
I6
aI4
aI0
aa(lp1966
I4
aI2
aI0
aa(lp1967
I2
aI1
aI0
aa(lp1968
I4
aI2
aI0
aa(lp1969
I3
aI2
aI0
aa(lp1970
I5
aI3
aI0
aa(lp1971
I7
aI4
aI0
aa(lp1972
I0
aI0
aI0
aa(lp1973
I5
aI3
aI0
aa(lp1974
I3
aI2
aI0
aa(lp1975
I4
aI2
aI0
aa(lp1976
I1
aI0
aI0
aa(lp1977
I7
aI5
aI0
aa(lp1978
I4
aI2
aI0
aa(lp1979
I4
aI2
aI0
aa(lp1980
I2
aI1
aI0
aa(lp1981
I2
aI1
aI0
aa(lp1982
I0
aI0
aI0
aa(lp1983
I5
aI3
aI0
aa(lp1984
I0
aI0
aI0
aa(lp1985
I0
aI0
aI0
aa(lp1986
I0
aI0
aI0
aa(lp1987
I4
aI2
aI0
aa(lp1988
I4
aI2
aI0
aa(lp1989
I0
aI0
aI0
aa(lp1990
I3
aI2
aI0
aa(lp1991
I3
aI1
aI0
aa(lp1992
I8
aI4
aI0
aa(lp1993
I4
aI2
aI0
aa(lp1994
I2
aI1
aI0
aa(lp1995
I0
aI0
aI0
aa(lp1996
I5
aI3
aI0
aa(lp1997
I0
aI0
aI0
aa(lp1998
I9
aI5
aI0
aa(lp1999
I3
aI2
aI0
aa(lp2000
I0
aI0
aI0
aa(lp2001
I0
aI0
aI0
aa(lp2002
I5
aI3
aI0
aa(lp2003
I2
aI1
aI0
aa(lp2004
I0
aI0
aI0
aa(lp2005
I1
aI0
aI0
aa(lp2006
I0
aI0
aI0
aa(lp2007
I5
aI2
aI0
aa(lp2008
I0
aI0
aI0
aa(lp2009
I3
aI1
aI0
aa(lp2010
I0
aI0
aI0
aa(lp2011
I4
aI2
aI0
aa(lp2012
I6
aI4
aI0
aa(lp2013
I2
aI1
aI0
aa(lp2014
I2
aI1
aI0
aa(lp2015
I5
aI3
aI0
aa(lp2016
I10
aI6
aI0
aa(lp2017
I5
aI2
aI0
aa(lp2018
I3
aI2
aI0
aa(lp2019
I4
aI2
aI0
aa(lp2020
I4
aI2
aI0
aa(lp2021
I2
aI1
aI0
aa(lp2022
I2
aI1
aI0
aa(lp2023
I0
aI0
aI0
aa(lp2024
I3
aI1
aI0
aa(lp2025
I2
aI1
aI0
aa(lp2026
I0
aI0
aI0
aa(lp2027
I3
aI2
aI0
aa(lp2028
I0
aI0
aI0
aa(lp2029
I5
aI3
aI0
aa(lp2030
I2
aI1
aI0
aa(lp2031
I5
aI2
aI0
aa(lp2032
I2
aI1
aI0
aa(lp2033
I2
aI1
aI0
aa(lp2034
I4
aI2
aI0
aa(lp2035
I6
aI3
aI0
aa(lp2036
I2
aI1
aI0
aa(lp2037
I4
aI2
aI0
aa(lp2038
I5
aI2
aI0
aa(lp2039
I3
aI2
aI0
aa(lp2040
I7
aI5
aI0
aa(lp2041
I4
aI2
aI0
aa(lp2042
I4
aI2
aI0
aa(lp2043
I0
aI0
aI0
aa(lp2044
I2
aI1
aI0
aa(lp2045
I4
aI2
aI0
aa(lp2046
I7
aI4
aI0
aa(lp2047
I4
aI2
aI0
aa(lp2048
I2
aI1
aI0
aa(lp2049
I5
aI2
aI0
aa(lp2050
I0
aI0
aI0
aa(lp2051
I4
aI3
aI0
aa(lp2052
I0
aI0
aI0
aa(lp2053
I0
aI0
aI0
aa(lp2054
I7
aI4
aI0
aa(lp2055
I3
aI1
aI0
aa(lp2056
I5
aI3
aI0
aa(lp2057
I2
aI1
aI0
aa(lp2058
I2
aI1
aI0
aa(lp2059
I5
aI3
aI0
aa(lp2060
I3
aI1
aI0
aa(lp2061
I2
aI1
aI0
aa(lp2062
I2
aI1
aI0
aa(lp2063
I6
aI3
aI0
aa(lp2064
I11
aI5
aI0
aa(lp2065
I5
aI3
aI0
aa(lp2066
I0
aI0
aI0
aa(lp2067
I6
aI3
aI0
aa(lp2068
I2
aI1
aI0
aa(lp2069
I5
aI3
aI0
aa(lp2070
I5
aI2
aI0
aa(lp2071
I7
aI4
aI0
aa(lp2072
I0
aI0
aI0
aa(lp2073
I0
aI0
aI0
aa(lp2074
I0
aI0
aI0
aa(lp2075
I5
aI3
aI0
aa(lp2076
I0
aI0
aI0
aa(lp2077
I0
aI0
aI0
aa(lp2078
I4
aI2
aI0
aa(lp2079
I7
aI3
aI0
aa(lp2080
I2
aI1
aI0
aa(lp2081
I0
aI0
aI0
aa(lp2082
I6
aI3
aI0
aa(lp2083
I2
aI1
aI0
aa(lp2084
I0
aI0
aI0
aa(lp2085
I2
aI1
aI0
aa(lp2086
I0
aI0
aI0
aa(lp2087
I2
aI1
aI0
aa(lp2088
I6
aI3
aI0
aa(lp2089
I6
aI3
aI0
aa(lp2090
I5
aI3
aI0
aa(lp2091
I7
aI4
aI0
aa(lp2092
I5
aI3
aI0
aa(lp2093
I0
aI0
aI0
aa(lp2094
I0
aI0
aI0
aa(lp2095
I0
aI0
aI0
aa(lp2096
I0
aI0
aI0
aa(lp2097
I6
aI3
aI0
aa(lp2098
I6
aI2
aI0
aa(lp2099
I3
aI2
aI0
aa(lp2100
I5
aI3
aI0
aa(lp2101
I0
aI0
aI0
aa(lp2102
I0
aI0
aI0
aa(lp2103
I2
aI1
aI0
aa(lp2104
I6
aI4
aI0
aa(lp2105
I4
aI2
aI0
aa(lp2106
I5
aI3
aI0
aa(lp2107
I6
aI3
aI0
aa(lp2108
I5
aI2
aI0
aa(lp2109
I3
aI2
aI0
aa(lp2110
I2
aI1
aI0
aa(lp2111
I4
aI2
aI0
aa(lp2112
I4
aI2
aI0
aa(lp2113
I5
aI3
aI0
aa(lp2114
I2
aI1
aI0
aa(lp2115
I4
aI2
aI0
aa(lp2116
I7
aI4
aI0
aa(lp2117
I2
aI1
aI0
aa(lp2118
I6
aI3
aI0
aa(lp2119
I7
aI3
aI0
aa(lp2120
I2
aI1
aI0
aa(lp2121
I4
aI2
aI0
aa(lp2122
I3
aI2
aI0
aa(lp2123
I0
aI0
aI0
aa(lp2124
I7
aI5
aI0
aa(lp2125
I2
aI1
aI0
aa(lp2126
I2
aI1
aI0
aa(lp2127
I3
aI2
aI0
aa(lp2128
I12
aI6
aI0
aa(lp2129
I3
aI2
aI0
aa(lp2130
I4
aI3
aI0
aa(lp2131
I0
aI0
aI0
aa(lp2132
I0
aI0
aI0
aa(lp2133
I4
aI2
aI0
aa(lp2134
I4
aI2
aI0
aa(lp2135
I6
aI4
aI0
aa(lp2136
I5
aI3
aI0
aa(lp2137
I10
aI5
aI0
aa(lp2138
I0
aI0
aI0
aa(lp2139
I2
aI1
aI0
aa(lp2140
I4
aI2
aI0
aa(lp2141
I0
aI0
aI0
aa(lp2142
I0
aI0
aI0
aa(lp2143
I0
aI0
aI0
aa(lp2144
I4
aI2
aI0
aa(lp2145
I8
aI4
aI0
aa(lp2146
I0
aI0
aI0
aa(lp2147
I0
aI0
aI0
aa(lp2148
I0
aI0
aI0
aa(lp2149
I5
aI2
aI0
aa(lp2150
I6
aI3
aI0
aa(lp2151
I3
aI2
aI0
aa(lp2152
I2
aI0
aI0
aa(lp2153
I2
aI1
aI0
aa(lp2154
I2
aI1
aI0
aa(lp2155
I0
aI0
aI0
aa(lp2156
I0
aI0
aI0
aa(lp2157
I0
aI0
aI0
aa(lp2158
I4
aI2
aI0
aa(lp2159
I7
aI4
aI0
aa(lp2160
I0
aI0
aI0
aa(lp2161
I0
aI0
aI0
aa(lp2162
I4
aI2
aI0
aa(lp2163
I3
aI2
aI0
aa(lp2164
I0
aI0
aI0
aa(lp2165
I4
aI2
aI0
aa(lp2166
I0
aI0
aI0
aa(lp2167
I7
aI4
aI0
aa(lp2168
I0
aI0
aI0
aa(lp2169
I6
aI4
aI0
aa(lp2170
I0
aI0
aI0
aa(lp2171
I0
aI0
aI0
aa(lp2172
I8
aI5
aI0
aa(lp2173
I6
aI4
aI0
aa(lp2174
I2
aI1
aI0
aa(lp2175
I2
aI1
aI0
aa(lp2176
I4
aI2
aI0
aa(lp2177
I7
aI3
aI0
aa(lp2178
I3
aI2
aI0
aa(lp2179
I4
aI2
aI0
aa(lp2180
I4
aI2
aI0
aa(lp2181
I0
aI0
aI0
aa(lp2182
I3
aI2
aI0
aa(lp2183
I2
aI1
aI0
aa(lp2184
I3
aI2
aI0
aa(lp2185
I4
aI2
aI0
aa(lp2186
I3
aI2
aI0
aa(lp2187
I2
aI1
aI0
aa(lp2188
I0
aI0
aI0
aa(lp2189
I4
aI2
aI0
aa(lp2190
I0
aI0
aI0
aa(lp2191
I4
aI2
aI0
aa(lp2192
I4
aI2
aI0
aa(lp2193
I0
aI0
aI0
aa(lp2194
I0
aI0
aI0
aa(lp2195
I3
aI1
aI0
aa(lp2196
I6
aI3
aI0
aa(lp2197
I2
aI1
aI0
aa(lp2198
I0
aI0
aI0
aa(lp2199
I3
aI2
aI0
aa(lp2200
I2
aI1
aI0
aa(lp2201
I3
aI1
aI0
aa(lp2202
I4
aI2
aI0
aa(lp2203
I0
aI0
aI0
aa(lp2204
I0
aI0
aI0
aa(lp2205
I4
aI2
aI0
aa(lp2206
I7
aI4
aI0
aa(lp2207
I3
aI2
aI0
aa(lp2208
I6
aI3
aI0
aa(lp2209
I4
aI2
aI0
aa(lp2210
I0
aI0
aI0
aa(lp2211
I0
aI0
aI0
aa(lp2212
I4
aI3
aI0
aa(lp2213
I0
aI0
aI0
aa(lp2214
I0
aI0
aI0
aa(lp2215
I5
aI3
aI0
aa(lp2216
I3
aI2
aI0
aa(lp2217
I4
aI2
aI0
aa(lp2218
I4
aI2
aI0
aa(lp2219
I0
aI0
aI0
aa(lp2220
I3
aI2
aI0
aa(lp2221
I3
aI1
aI0
aa(lp2222
I0
aI0
aI0
aa(lp2223
I3
aI1
aI0
aa(lp2224
I5
aI2
aI0
aa(lp2225
I6
aI5
aI0
aa(lp2226
I2
aI1
aI0
aa(lp2227
I6
aI4
aI0
aa(lp2228
I11
aI5
aI0
aa(lp2229
I5
aI3
aI0
aa(lp2230
I9
aI6
aI0
aa(lp2231
I4
aI2
aI0
aa(lp2232
I5
aI3
aI0
aa(lp2233
I0
aI0
aI0
aa(lp2234
I0
aI0
aI0
aa(lp2235
I4
aI2
aI0
aa(lp2236
I0
aI0
aI0
aa(lp2237
I7
aI4
aI0
aa(lp2238
I3
aI1
aI0
aa(lp2239
I2
aI1
aI0
aa(lp2240
I4
aI2
aI0
aa(lp2241
I0
aI0
aI0
aa(lp2242
I0
aI0
aI0
aa(lp2243
I4
aI2
aI0
aa(lp2244
I2
aI1
aI0
aa(lp2245
I0
aI0
aI0
aa(lp2246
I6
aI3
aI0
aa(lp2247
I2
aI1
aI0
aa(lp2248
I0
aI0
aI0
aa(lp2249
I12
aI5
aI0
aa(lp2250
I3
aI2
aI0
aa(lp2251
I4
aI2
aI0
aa(lp2252
I5
aI3
aI0
aa(lp2253
I5
aI3
aI0
aa(lp2254
I5
aI3
aI0
aa(lp2255
I2
aI1
aI0
aa(lp2256
I5
aI2
aI0
aa(lp2257
I3
aI2
aI0
aa(lp2258
I8
aI4
aI0
aa(lp2259
I7
aI3
aI0
aa(lp2260
I6
aI3
aI0
aa(lp2261
I0
aI0
aI0
aa(lp2262
I5
aI3
aI0
aa(lp2263
I0
aI0
aI0
aa(lp2264
I0
aI0
aI0
aa(lp2265
I2
aI1
aI0
aa(lp2266
I4
aI2
aI0
aa(lp2267
I3
aI1
aI0
aa(lp2268
I4
aI2
aI0
aa(lp2269
I4
aI2
aI0
aa(lp2270
I0
aI0
aI0
aa(lp2271
I4
aI2
aI0
aa(lp2272
I6
aI3
aI0
aa(lp2273
I4
aI2
aI0
aa(lp2274
I4
aI2
aI0
aa(lp2275
I8
aI5
aI0
aa(lp2276
I4
aI2
aI0
aa(lp2277
I11
aI6
aI0
aa(lp2278
I3
aI2
aI0
aa(lp2279
I0
aI0
aI0
aa(lp2280
I0
aI0
aI0
aa(lp2281
I3
aI1
aI0
aa(lp2282
I4
aI2
aI0
aa(lp2283
I4
aI2
aI0
aa(lp2284
I4
aI2
aI0
aa(lp2285
I2
aI1
aI0
aa(lp2286
I6
aI3
aI0
aa(lp2287
I0
aI0
aI0
aa(lp2288
I6
aI3
aI0
aa(lp2289
I4
aI2
aI0
aa(lp2290
I5
aI2
aI0
aa(lp2291
I4
aI2
aI0
aa(lp2292
I11
aI6
aI0
aa(lp2293
I4
aI2
aI0
aa(lp2294
I6
aI3
aI0
aa(lp2295
I0
aI0
aI0
aa(lp2296
I0
aI0
aI0
aa(lp2297
I2
aI1
aI0
aa(lp2298
I4
aI2
aI0
aa(lp2299
I5
aI3
aI0
aa(lp2300
I5
aI3
aI0
aa(lp2301
I4
aI2
aI0
aa(lp2302
I0
aI0
aI0
aa(lp2303
I9
aI6
aI0
aa(lp2304
I0
aI0
aI0
aa(lp2305
I0
aI0
aI0
aa(lp2306
I4
aI2
aI0
aa(lp2307
I5
aI2
aI0
aa(lp2308
I0
aI0
aI0
aa(lp2309
I5
aI2
aI0
aa(lp2310
I4
aI2
aI0
aa(lp2311
I7
aI4
aI0
aa(lp2312
I8
aI5
aI0
aa(lp2313
I0
aI0
aI0
aa(lp2314
I0
aI0
aI0
aa(lp2315
I3
aI1
aI0
aa(lp2316
I4
aI2
aI0
aa(lp2317
I9
aI6
aI0
aa(lp2318
I0
aI0
aI0
aa(lp2319
I0
aI0
aI0
aa(lp2320
I6
aI3
aI0
aa(lp2321
I3
aI1
aI0
aa(lp2322
I6
aI3
aI0
aa(lp2323
I2
aI1
aI0
aa(lp2324
I6
aI4
aI0
aa(lp2325
I8
aI5
aI0
aa(lp2326
I3
aI2
aI0
aa(lp2327
I0
aI0
aI0
aa(lp2328
I0
aI0
aI0
aa(lp2329
I4
aI2
aI0
aa(lp2330
I0
aI0
aI0
aa(lp2331
I0
aI0
aI0
aa(lp2332
I0
aI0
aI0
aa(lp2333
I4
aI2
aI0
aa(lp2334
I4
aI2
aI0
aa(lp2335
I2
aI1
aI0
aa(lp2336
I0
aI0
aI0
aa(lp2337
I4
aI2
aI0
aa(lp2338
I4
aI2
aI0
aa(lp2339
I0
aI0
aI0
aa(lp2340
I0
aI0
aI0
aa(lp2341
I7
aI4
aI0
aa(lp2342
I5
aI3
aI0
aa(lp2343
I4
aI2
aI0
aa(lp2344
I10
aI5
aI0
aa(lp2345
I10
aI5
aI0
aa(lp2346
I4
aI2
aI0
aa(lp2347
I0
aI0
aI0
aa(lp2348
I7
aI4
aI0
aa(lp2349
I2
aI1
aI0
aa(lp2350
I5
aI3
aI0
aa(lp2351
I5
aI3
aI0
aa(lp2352
I2
aI1
aI0
aa(lp2353
I2
aI1
aI0
aa(lp2354
I3
aI2
aI0
aa(lp2355
I0
aI0
aI0
aa(lp2356
I0
aI0
aI0
aa(lp2357
I0
aI0
aI0
aa(lp2358
I0
aI0
aI0
aa(lp2359
I2
aI1
aI0
aa(lp2360
I0
aI0
aI0
aa(lp2361
I3
aI2
aI0
aa(lp2362
I7
aI4
aI0
aa(lp2363
I2
aI1
aI0
aa(lp2364
I4
aI2
aI0
aa(lp2365
I0
aI0
aI0
aa(lp2366
I4
aI2
aI0
aa(lp2367
I3
aI2
aI0
aa(lp2368
I2
aI1
aI0
aa(lp2369
I2
aI1
aI0
aa(lp2370
I0
aI0
aI0
aa(lp2371
I0
aI0
aI0
aa(lp2372
I0
aI0
aI0
aa(lp2373
I0
aI0
aI0
aa(lp2374
I0
aI0
aI0
aa(lp2375
I2
aI1
aI0
aa(lp2376
I4
aI2
aI0
aa(lp2377
I0
aI0
aI0
aa(lp2378
I0
aI0
aI0
aa(lp2379
I0
aI0
aI0
aa(lp2380
I3
aI2
aI0
aa(lp2381
I5
aI3
aI0
aa(lp2382
I4
aI2
aI0
aa(lp2383
I2
aI1
aI0
aa(lp2384
I4
aI2
aI0
aa(lp2385
I3
aI1
aI0
aa(lp2386
I4
aI2
aI0
aa(lp2387
I3
aI2
aI0
aa(lp2388
I0
aI0
aI0
aa(lp2389
I0
aI0
aI0
aa(lp2390
I4
aI2
aI0
aa(lp2391
I0
aI0
aI0
aa(lp2392
I0
aI0
aI0
aa(lp2393
I0
aI0
aI0
aa(lp2394
I0
aI0
aI0
aa(lp2395
I6
aI3
aI0
aa(lp2396
I3
aI2
aI0
aa(lp2397
I5
aI3
aI0
aa(lp2398
I4
aI2
aI0
aa(lp2399
I5
aI3
aI0
aa(lp2400
I0
aI0
aI0
aa(lp2401
I0
aI0
aI0
aa(lp2402
I7
aI4
aI0
aa(lp2403
I8
aI4
aI0
aa(lp2404
I4
aI2
aI0
aa(lp2405
I3
aI2
aI0
aa(lp2406
I9
aI4
aI0
aa(lp2407
I0
aI0
aI0
aa(lp2408
I2
aI1
aI0
aa(lp2409
I0
aI0
aI0
aa(lp2410
I3
aI2
aI0
aa(lp2411
I6
aI3
aI0
aa(lp2412
I10
aI6
aI0
aa(lp2413
I4
aI2
aI0
aa(lp2414
I2
aI1
aI0
aa(lp2415
I0
aI0
aI0
aa(lp2416
I4
aI3
aI0
aa(lp2417
I0
aI0
aI0
aa(lp2418
I10
aI5
aI0
aa(lp2419
I4
aI2
aI0
aa(lp2420
I4
aI2
aI0
aa(lp2421
I3
aI1
aI0
aa(lp2422
I7
aI4
aI0
aa(lp2423
I5
aI2
aI0
aa(lp2424
I0
aI0
aI0
aa(lp2425
I0
aI0
aI0
aa(lp2426
I4
aI2
aI0
aa(lp2427
I1
aI0
aI0
aa(lp2428
I0
aI0
aI0
aa(lp2429
I0
aI0
aI0
aa(lp2430
I4
aI3
aI0
aa(lp2431
I3
aI1
aI0
aa(lp2432
I0
aI0
aI0
aa(lp2433
I5
aI2
aI0
aa(lp2434
I4
aI2
aI0
aa(lp2435
I6
aI3
aI0
aa(lp2436
I2
aI1
aI0
aa(lp2437
I3
aI2
aI0
aa(lp2438
I3
aI2
aI0
aa(lp2439
I3
aI2
aI0
aa(lp2440
I5
aI3
aI0
aa(lp2441
I4
aI2
aI0
aa(lp2442
I0
aI0
aI0
aa(lp2443
I0
aI0
aI0
aa(lp2444
I0
aI0
aI0
aa(lp2445
I0
aI0
aI0
aa(lp2446
I0
aI0
aI0
aa(lp2447
I5
aI3
aI0
aa(lp2448
I4
aI2
aI0
aa(lp2449
I4
aI3
aI0
aa(lp2450
I4
aI3
aI0
aa(lp2451
I4
aI2
aI0
aa(lp2452
I4
aI2
aI0
aa(lp2453
I0
aI0
aI0
aa(lp2454
I6
aI3
aI0
aa(lp2455
I4
aI2
aI0
aa(lp2456
I4
aI2
aI0
aa(lp2457
I0
aI0
aI0
aa(lp2458
I6
aI3
aI0
aa(lp2459
I2
aI1
aI0
aa(lp2460
I5
aI2
aI0
aa(lp2461
I4
aI2
aI0
aa(lp2462
I3
aI1
aI0
aa(lp2463
I0
aI0
aI0
aa(lp2464
I1
aI0
aI0
aa(lp2465
I0
aI0
aI0
aa(lp2466
I2
aI1
aI0
aa(lp2467
I3
aI2
aI0
aa(lp2468
I3
aI2
aI0
aa(lp2469
I5
aI3
aI0
aa(lp2470
I0
aI0
aI0
aa(lp2471
I3
aI1
aI0
aa(lp2472
I9
aI5
aI0
aa(lp2473
I6
aI4
aI0
aa(lp2474
I4
aI2
aI0
aa(lp2475
I5
aI3
aI0
aa(lp2476
I8
aI5
aI0
aa(lp2477
I0
aI0
aI0
aa(lp2478
I2
aI1
aI0
aa(lp2479
I2
aI1
aI0
aa(lp2480
I0
aI0
aI0
aa(lp2481
I0
aI0
aI0
aa(lp2482
I3
aI2
aI0
aa(lp2483
I0
aI0
aI0
aa(lp2484
I3
aI2
aI0
aa(lp2485
I3
aI2
aI0
aa(lp2486
I0
aI0
aI0
aa(lp2487
I5
aI3
aI0
aa(lp2488
I9
aI5
aI0
aa(lp2489
I2
aI1
aI0
aa(lp2490
I8
aI5
aI0
aa(lp2491
I0
aI0
aI0
aa(lp2492
I0
aI0
aI0
aa(lp2493
I0
aI0
aI0
aa(lp2494
I0
aI0
aI0
aa(lp2495
I3
aI2
aI0
aa(lp2496
I6
aI3
aI0
aa(lp2497
I0
aI0
aI0
aa(lp2498
I5
aI3
aI0
aa(lp2499
I9
aI4
aI0
aa(lp2500
I7
aI4
aI0
aa(lp2501
I5
aI2
aI0
aa(lp2502
I3
aI2
aI0
aa(lp2503
I4
aI2
aI0
aa(lp2504
I0
aI0
aI0
aa(lp2505
I6
aI2
aI0
aa(lp2506
I5
aI3
aI0
aa(lp2507
I0
aI0
aI0
aa(lp2508
I4
aI2
aI0
aa(lp2509
I0
aI0
aI0
aa(lp2510
I4
aI2
aI0
aa(lp2511
I2
aI1
aI0
aa(lp2512
I0
aI0
aI0
aa(lp2513
I3
aI2
aI0
aa(lp2514
I3
aI1
aI0
aa(lp2515
I5
aI3
aI0
aa(lp2516
I0
aI0
aI0
aa(lp2517
I3
aI1
aI0
aa(lp2518
I3
aI2
aI0
aa(lp2519
I3
aI2
aI0
aa(lp2520
I2
aI1
aI0
aa(lp2521
I0
aI0
aI0
aa(lp2522
I4
aI2
aI0
aa(lp2523
I0
aI0
aI0
aa(lp2524
I6
aI3
aI0
aa(lp2525
I2
aI1
aI0
aa(lp2526
I4
aI3
aI0
aa(lp2527
I0
aI0
aI0
aa(lp2528
I7
aI2
aI0
aa(lp2529
I0
aI0
aI0
aa(lp2530
I4
aI2
aI0
aa(lp2531
I6
aI3
aI0
aa(lp2532
I4
aI2
aI0
aa(lp2533
I3
aI1
aI0
aa(lp2534
I4
aI2
aI0
aa(lp2535
I3
aI1
aI0
aa(lp2536
I3
aI2
aI0
aa(lp2537
I4
aI2
aI0
aa(lp2538
I0
aI0
aI0
aa(lp2539
I5
aI3
aI0
aa(lp2540
I2
aI1
aI0
aa(lp2541
I6
aI3
aI0
aa(lp2542
I7
aI5
aI0
aa(lp2543
I6
aI4
aI0
aa(lp2544
I0
aI0
aI0
aa(lp2545
I0
aI0
aI0
aa(lp2546
I0
aI0
aI0
aa(lp2547
I0
aI0
aI0
aa(lp2548
I2
aI1
aI0
aa(lp2549
I4
aI2
aI0
aa(lp2550
I2
aI1
aI0
aa(lp2551
I3
aI2
aI0
aa(lp2552
I5
aI3
aI0
aa(lp2553
I5
aI3
aI0
aa(lp2554
I3
aI2
aI0
aa(lp2555
I0
aI0
aI0
aa(lp2556
I0
aI0
aI0
aa(lp2557
I5
aI3
aI0
aa(lp2558
I2
aI1
aI0
aa(lp2559
I0
aI0
aI0
aa(lp2560
I2
aI1
aI0
aa(lp2561
I3
aI2
aI0
aa(lp2562
I0
aI0
aI0
aa(lp2563
I5
aI3
aI0
aa(lp2564
I0
aI0
aI0
aa(lp2565
I5
aI2
aI0
aa(lp2566
I3
aI2
aI0
aa(lp2567
I0
aI0
aI0
aa(lp2568
I5
aI3
aI0
aa(lp2569
I4
aI2
aI0
aa(lp2570
I2
aI1
aI0
aa(lp2571
I6
aI3
aI0
aa(lp2572
I0
aI0
aI0
aa(lp2573
I0
aI0
aI0
aa(lp2574
I11
aI5
aI0
aa(lp2575
I4
aI2
aI0
aa(lp2576
I0
aI0
aI0
aa(lp2577
I0
aI0
aI0
aa(lp2578
I4
aI2
aI0
aa(lp2579
I5
aI2
aI0
aa(lp2580
I2
aI1
aI0
aa(lp2581
I2
aI1
aI0
aa(lp2582
I2
aI1
aI0
aa(lp2583
I0
aI0
aI0
aa(lp2584
I2
aI1
aI0
aa(lp2585
I2
aI1
aI0
aa(lp2586
I0
aI0
aI0
aa(lp2587
I4
aI2
aI0
aa(lp2588
I8
aI5
aI0
aa(lp2589
I0
aI0
aI0
aa(lp2590
I0
aI0
aI0
aa(lp2591
I6
aI3
aI0
aa(lp2592
I8
aI4
aI0
aa(lp2593
I4
aI2
aI0
aa(lp2594
I4
aI2
aI0
aa(lp2595
I4
aI3
aI0
aa(lp2596
I5
aI3
aI0
aa(lp2597
I6
aI3
aI0
aa(lp2598
I6
aI3
aI0
aa(lp2599
I0
aI0
aI0
aa(lp2600
I0
aI0
aI0
aa(lp2601
I4
aI1
aI0
aa(lp2602
I0
aI0
aI0
aa(lp2603
I0
aI0
aI0
aa(lp2604
I8
aI5
aI0
aa(lp2605
I4
aI2
aI0
aa(lp2606
I0
aI0
aI0
aa(lp2607
I0
aI0
aI0
aa(lp2608
I7
aI3
aI0
aa(lp2609
I2
aI1
aI0
aa(lp2610
I8
aI3
aI0
aa(lp2611
I7
aI4
aI0
aa(lp2612
I4
aI2
aI0
aa(lp2613
I2
aI1
aI0
aa(lp2614
I3
aI2
aI0
aa(lp2615
I2
aI1
aI0
aa(lp2616
I0
aI0
aI0
aa(lp2617
I3
aI2
aI0
aa(lp2618
I6
aI3
aI0
aa(lp2619
I3
aI2
aI0
aa(lp2620
I0
aI0
aI0
aa(lp2621
I6
aI4
aI0
aa(lp2622
I2
aI1
aI0
aa(lp2623
I3
aI1
aI0
aa(lp2624
I0
aI0
aI0
aa(lp2625
I5
aI2
aI0
aa(lp2626
I9
aI5
aI0
aa(lp2627
I2
aI1
aI0
aa(lp2628
I4
aI3
aI0
aa(lp2629
I2
aI1
aI0
aa(lp2630
I0
aI0
aI0
aa(lp2631
I4
aI3
aI0
aa(lp2632
I0
aI0
aI0
aa(lp2633
I0
aI0
aI0
aa(lp2634
I2
aI1
aI0
aa(lp2635
I5
aI3
aI0
aa(lp2636
I7
aI3
aI0
aa(lp2637
I4
aI2
aI0
aa(lp2638
I0
aI0
aI0
aa(lp2639
I4
aI3
aI0
aa(lp2640
I6
aI3
aI0
aa(lp2641
I4
aI2
aI0
aa(lp2642
I6
aI3
aI0
aa(lp2643
I5
aI3
aI0
aa(lp2644
I7
aI4
aI0
aa(lp2645
I3
aI2
aI0
aa(lp2646
I0
aI0
aI0
aa(lp2647
I3
aI2
aI0
aa(lp2648
I4
aI3
aI0
aa(lp2649
I3
aI2
aI0
aa(lp2650
I4
aI3
aI0
aa(lp2651
I0
aI0
aI0
aa(lp2652
I2
aI1
aI0
aa(lp2653
I3
aI2
aI0
aa(lp2654
I4
aI2
aI0
aa(lp2655
I5
aI2
aI0
aa(lp2656
I3
aI2
aI0
aa(lp2657
I2
aI1
aI0
aa(lp2658
I4
aI2
aI0
aa(lp2659
I8
aI4
aI0
aa(lp2660
I3
aI2
aI0
aa(lp2661
I0
aI0
aI0
aa(lp2662
I4
aI2
aI0
aa(lp2663
I5
aI3
aI0
aa(lp2664
I0
aI0
aI0
aa(lp2665
I4
aI2
aI0
aa(lp2666
I2
aI1
aI0
aa(lp2667
I6
aI3
aI0
aa(lp2668
I4
aI2
aI0
aa(lp2669
I6
aI3
aI0
aa(lp2670
I4
aI2
aI0
aa(lp2671
I0
aI0
aI0
aa(lp2672
I2
aI1
aI0
aa(lp2673
I0
aI0
aI0
aa(lp2674
I0
aI0
aI0
aa(lp2675
I0
aI0
aI0
aa(lp2676
I7
aI4
aI0
aa(lp2677
I0
aI0
aI0
aa(lp2678
I0
aI0
aI0
aa(lp2679
I4
aI2
aI0
aa(lp2680
I0
aI0
aI0
aa(lp2681
I2
aI1
aI0
aa(lp2682
I3
aI1
aI0
aa(lp2683
I4
aI2
aI0
aa(lp2684
I3
aI2
aI0
aa(lp2685
I4
aI2
aI0
aa(lp2686
I5
aI3
aI0
aa(lp2687
I3
aI1
aI0
aa(lp2688
I7
aI4
aI0
aa(lp2689
I5
aI4
aI0
aa(lp2690
I4
aI2
aI0
aa(lp2691
I2
aI1
aI0
aa(lp2692
I4
aI2
aI0
aa(lp2693
I4
aI3
aI0
aa(lp2694
I7
aI4
aI0
aa(lp2695
I2
aI1
aI0
aa(lp2696
I3
aI1
aI0
aa(lp2697
I0
aI0
aI0
aa(lp2698
I8
aI3
aI0
aa(lp2699
I2
aI1
aI0
aa(lp2700
I6
aI4
aI0
aa(lp2701
I5
aI4
aI0
aa(lp2702
I5
aI2
aI0
aa(lp2703
I4
aI2
aI0
aa(lp2704
I0
aI0
aI0
aa(lp2705
I4
aI2
aI0
aa(lp2706
I3
aI1
aI0
aa(lp2707
I0
aI0
aI0
aa(lp2708
I0
aI0
aI0
aa(lp2709
I4
aI2
aI0
aa(lp2710
I3
aI1
aI0
aa(lp2711
I4
aI3
aI0
aa(lp2712
I4
aI2
aI0
aa(lp2713
I2
aI1
aI0
aa(lp2714
I4
aI2
aI0
aa(lp2715
I3
aI2
aI0
aa(lp2716
I5
aI3
aI0
aa(lp2717
I3
aI2
aI0
aa(lp2718
I0
aI0
aI0
aa(lp2719
I0
aI0
aI0
aa(lp2720
I0
aI0
aI0
aa(lp2721
I0
aI0
aI0
aa(lp2722
I4
aI2
aI0
aa(lp2723
I0
aI0
aI0
aa(lp2724
I0
aI0
aI0
aa(lp2725
I5
aI2
aI0
aa(lp2726
I5
aI3
aI0
aa(lp2727
I0
aI0
aI0
aa(lp2728
I0
aI0
aI0
aa(lp2729
I4
aI2
aI0
aa(lp2730
I3
aI2
aI0
aa(lp2731
I2
aI1
aI0
aa(lp2732
I4
aI2
aI0
aa(lp2733
I3
aI1
aI0
aa(lp2734
I0
aI0
aI0
aa(lp2735
I0
aI0
aI0
aa(lp2736
I0
aI0
aI0
aa(lp2737
I0
aI0
aI0
aa(lp2738
I6
aI3
aI0
aa(lp2739
I6
aI4
aI0
aa(lp2740
I0
aI0
aI0
aa(lp2741
I0
aI0
aI0
aa(lp2742
I0
aI0
aI0
aa(lp2743
I3
aI2
aI0
aa(lp2744
I5
aI2
aI0
aa(lp2745
I5
aI2
aI0
aa(lp2746
I6
aI3
aI0
aa(lp2747
I4
aI1
aI0
aa(lp2748
I5
aI3
aI0
aa(lp2749
I0
aI0
aI0
aa(lp2750
I6
aI3
aI0
aa(lp2751
I5
aI3
aI0
aa(lp2752
I2
aI1
aI0
aa(lp2753
I8
aI3
aI0
aa(lp2754
I5
aI2
aI0
aa(lp2755
I0
aI0
aI0
aa(lp2756
I0
aI0
aI0
aa(lp2757
I2
aI1
aI0
aa(lp2758
I4
aI2
aI0
aa(lp2759
I0
aI0
aI0
aa(lp2760
I0
aI0
aI0
aa(lp2761
I3
aI2
aI0
aa(lp2762
I0
aI0
aI0
aa(lp2763
I6
aI3
aI0
aa(lp2764
I0
aI0
aI0
aa(lp2765
I4
aI2
aI0
aa(lp2766
I0
aI0
aI0
aa(lp2767
I2
aI1
aI0
aa(lp2768
I0
aI0
aI0
aa(lp2769
I0
aI0
aI0
aa(lp2770
I4
aI2
aI0
aa(lp2771
I4
aI2
aI0
aa(lp2772
I4
aI2
aI0
aa(lp2773
I2
aI1
aI0
aa(lp2774
I4
aI3
aI0
aa(lp2775
I6
aI4
aI0
aa(lp2776
I0
aI0
aI0
aa(lp2777
I14
aI6
aI0
aa(lp2778
I6
aI4
aI0
aa(lp2779
I2
aI1
aI0
aa(lp2780
I4
aI2
aI0
aa(lp2781
I4
aI2
aI0
aa(lp2782
I0
aI0
aI0
aa(lp2783
I5
aI3
aI0
aa(lp2784
I0
aI0
aI0
aa(lp2785
I2
aI1
aI0
aa(lp2786
I2
aI1
aI0
aa(lp2787
I0
aI0
aI0
aa(lp2788
I3
aI2
aI0
aa(lp2789
I0
aI0
aI0
aa(lp2790
I0
aI0
aI0
aa(lp2791
I0
aI0
aI0
aa(lp2792
I2
aI1
aI0
aa(lp2793
I3
aI2
aI0
aa(lp2794
I7
aI4
aI0
aa(lp2795
I0
aI0
aI0
aa(lp2796
I4
aI3
aI0
aa(lp2797
I0
aI0
aI0
aa(lp2798
I0
aI0
aI0
aa(lp2799
I7
aI4
aI0
aa(lp2800
I4
aI3
aI0
aa(lp2801
I4
aI3
aI0
aa(lp2802
I4
aI3
aI0
aa(lp2803
I2
aI1
aI0
aa(lp2804
I0
aI0
aI0
aa(lp2805
I5
aI3
aI0
aa(lp2806
I4
aI2
aI0
aa(lp2807
I4
aI2
aI0
aa(lp2808
I0
aI0
aI0
aa(lp2809
I3
aI2
aI0
aa(lp2810
I0
aI0
aI0
aa(lp2811
I0
aI0
aI0
aa(lp2812
I3
aI2
aI0
aa(lp2813
I7
aI4
aI0
aa(lp2814
I6
aI3
aI0
aa(lp2815
I2
aI1
aI0
aa(lp2816
I2
aI1
aI0
aa(lp2817
I2
aI1
aI0
aa(lp2818
I0
aI0
aI0
aa(lp2819
I0
aI0
aI0
aa(lp2820
I4
aI2
aI0
aa(lp2821
I9
aI4
aI0
aa(lp2822
I0
aI0
aI0
aa(lp2823
I0
aI0
aI0
aa(lp2824
I6
aI3
aI0
aa(lp2825
I0
aI0
aI0
aa(lp2826
I7
aI2
aI0
aa(lp2827
I4
aI2
aI0
aa(lp2828
I0
aI0
aI0
aa(lp2829
I5
aI3
aI0
aa(lp2830
I0
aI0
aI0
aa(lp2831
I3
aI2
aI0
aa(lp2832
I0
aI0
aI0
aa(lp2833
I0
aI0
aI0
aa(lp2834
I4
aI2
aI0
aa(lp2835
I0
aI0
aI0
aa(lp2836
I4
aI2
aI0
aa(lp2837
I3
aI1
aI0
aa(lp2838
I2
aI1
aI0
aa(lp2839
I5
aI3
aI0
aa(lp2840
I9
aI5
aI0
aa(lp2841
I4
aI2
aI0
aa(lp2842
I6
aI3
aI0
aa(lp2843
I6
aI3
aI0
aa(lp2844
I2
aI1
aI0
aa(lp2845
I4
aI2
aI0
aa(lp2846
I0
aI0
aI0
aa(lp2847
I3
aI2
aI0
aa(lp2848
I3
aI1
aI0
aa(lp2849
I4
aI2
aI0
aa(lp2850
I2
aI1
aI0
aa(lp2851
I0
aI0
aI0
aa(lp2852
I0
aI0
aI0
aa(lp2853
I0
aI0
aI0
aa(lp2854
I0
aI0
aI0
aa(lp2855
I8
aI4
aI0
aa(lp2856
I2
aI1
aI0
aa(lp2857
I4
aI2
aI0
aa(lp2858
I0
aI0
aI0
aa(lp2859
I0
aI0
aI0
aa(lp2860
I3
aI2
aI0
aa(lp2861
I3
aI2
aI0
aa(lp2862
I8
aI4
aI0
aa(lp2863
I4
aI2
aI0
aa(lp2864
I5
aI3
aI0
aa(lp2865
I4
aI2
aI0
aa(lp2866
I8
aI4
aI0
aa(lp2867
I4
aI3
aI0
aa(lp2868
I5
aI3
aI0
aa(lp2869
I2
aI1
aI0
aa(lp2870
I0
aI0
aI0
aa(lp2871
I0
aI0
aI0
aa(lp2872
I4
aI2
aI0
aa(lp2873
I4
aI2
aI0
aa(lp2874
I4
aI2
aI0
aa(lp2875
I5
aI3
aI0
aa(lp2876
I3
aI2
aI0
aa(lp2877
I0
aI0
aI0
aa(lp2878
I4
aI2
aI0
aa(lp2879
I0
aI0
aI0
aa(lp2880
I7
aI3
aI0
aa(lp2881
I4
aI2
aI0
aa(lp2882
I5
aI3
aI0
aa(lp2883
I4
aI3
aI0
aa(lp2884
I0
aI0
aI0
aa(lp2885
I0
aI0
aI0
aa(lp2886
I2
aI1
aI0
aa(lp2887
I0
aI0
aI0
aa(lp2888
I0
aI0
aI0
aa(lp2889
I8
aI5
aI0
aa(lp2890
I0
aI0
aI0
aa(lp2891
I2
aI1
aI0
aa(lp2892
I0
aI0
aI0
aa(lp2893
I4
aI2
aI0
aa(lp2894
I3
aI1
aI0
aa(lp2895
I0
aI0
aI0
aa(lp2896
I2
aI1
aI0
aa(lp2897
I0
aI0
aI0
aa(lp2898
I3
aI2
aI0
aa(lp2899
I3
aI2
aI0
aa(lp2900
I0
aI0
aI0
aa(lp2901
I10
aI6
aI0
aa(lp2902
I0
aI0
aI0
aa(lp2903
I4
aI3
aI0
aa(lp2904
I4
aI2
aI0
aa(lp2905
I0
aI0
aI0
aa(lp2906
I3
aI1
aI0
aa(lp2907
I0
aI0
aI0
aa(lp2908
I2
aI1
aI0
aa(lp2909
I4
aI3
aI0
aa(lp2910
I5
aI3
aI0
aa(lp2911
I0
aI0
aI0
aa(lp2912
I5
aI2
aI0
aa(lp2913
I2
aI1
aI0
aa(lp2914
I3
aI2
aI0
aa(lp2915
I0
aI0
aI0
aa(lp2916
I2
aI1
aI0
aa(lp2917
I4
aI2
aI0
aa(lp2918
I3
aI1
aI0
aa(lp2919
I0
aI0
aI0
aa(lp2920
I0
aI0
aI0
aa(lp2921
I3
aI2
aI0
aa(lp2922
I4
aI2
aI0
aa(lp2923
I4
aI2
aI0
aa(lp2924
I2
aI1
aI0
aa(lp2925
I5
aI3
aI0
aa(lp2926
I3
aI2
aI0
aa(lp2927
I5
aI3
aI0
aa(lp2928
I2
aI1
aI0
aa(lp2929
I4
aI2
aI0
aa(lp2930
I5
aI2
aI0
aa(lp2931
I0
aI0
aI0
aa(lp2932
I3
aI2
aI0
aa(lp2933
I2
aI1
aI0
aa(lp2934
I0
aI0
aI0
aa(lp2935
I4
aI3
aI0
aa(lp2936
I2
aI1
aI0
aa(lp2937
I0
aI0
aI0
aa(lp2938
I2
aI1
aI0
aa(lp2939
I3
aI1
aI0
aa(lp2940
I0
aI0
aI0
aa(lp2941
I2
aI1
aI0
aa(lp2942
I3
aI2
aI0
aa(lp2943
I9
aI5
aI0
aa(lp2944
I0
aI0
aI0
aa(lp2945
I5
aI2
aI0
aa(lp2946
I4
aI2
aI0
aa(lp2947
I4
aI2
aI0
aa(lp2948
I0
aI0
aI0
aa(lp2949
I0
aI0
aI0
aa(lp2950
I4
aI2
aI0
aa(lp2951
I0
aI0
aI0
aa(lp2952
I4
aI2
aI0
aa(lp2953
I3
aI2
aI0
aa(lp2954
I4
aI2
aI0
aa(lp2955
I7
aI4
aI0
aa(lp2956
I2
aI1
aI0
aa(lp2957
I6
aI3
aI0
aa(lp2958
I5
aI3
aI0
aa(lp2959
I2
aI1
aI0
aa(lp2960
I4
aI2
aI0
aa(lp2961
I0
aI0
aI0
aa(lp2962
I4
aI2
aI0
aa(lp2963
I4
aI2
aI0
aa(lp2964
I5
aI3
aI0
aa(lp2965
I3
aI2
aI0
aa(lp2966
I2
aI1
aI0
aa(lp2967
I0
aI0
aI0
aa(lp2968
I0
aI0
aI0
aa(lp2969
I0
aI0
aI0
aa(lp2970
I5
aI3
aI0
aa(lp2971
I0
aI0
aI0
aa(lp2972
I13
aI6
aI0
aa(lp2973
I5
aI3
aI0
aa(lp2974
I5
aI3
aI0
aa(lp2975
I4
aI2
aI0
aa(lp2976
I2
aI1
aI0
aa(lp2977
I0
aI0
aI0
aa(lp2978
I6
aI4
aI0
aa(lp2979
I0
aI0
aI0
aa(lp2980
I0
aI0
aI0
aa(lp2981
I4
aI3
aI0
aa(lp2982
I0
aI0
aI0
aa(lp2983
I0
aI0
aI0
aa(lp2984
I8
aI4
aI0
aa(lp2985
I5
aI2
aI0
aa(lp2986
I6
aI3
aI0
aa(lp2987
I0
aI0
aI0
aa(lp2988
I2
aI1
aI0
aa(lp2989
I0
aI0
aI0
aa(lp2990
I3
aI1
aI0
aa(lp2991
I12
aI6
aI0
aa(lp2992
I2
aI1
aI0
aa(lp2993
I2
aI1
aI0
aa(lp2994
I3
aI2
aI0
aa(lp2995
I5
aI2
aI0
aa(lp2996
I4
aI2
aI0
aa(lp2997
I6
aI3
aI0
aa(lp2998
I2
aI1
aI0
aa(lp2999
I0
aI0
aI0
aa(lp3000
I3
aI2
aI0
aa(lp3001
I8
aI4
aI0
aa(lp3002
I0
aI0
aI0
aa(lp3003
I0
aI0
aI0
aa(lp3004
I0
aI0
aI0
aa(lp3005
I10
aI5
aI0
aa(lp3006
I2
aI1
aI0
aa(lp3007
I4
aI2
aI0
aa(lp3008
I6
aI4
aI0
aa(lp3009
I7
aI4
aI0
aa(lp3010
I4
aI2
aI0
aa(lp3011
I0
aI0
aI0
aa(lp3012
I4
aI2
aI0
aa(lp3013
I6
aI3
aI0
aa(lp3014
I2
aI1
aI0
aa(lp3015
I8
aI4
aI0
aa(lp3016
I4
aI2
aI0
aa(lp3017
I6
aI3
aI0
aa(lp3018
I6
aI3
aI0
aa(lp3019
I6
aI3
aI0
aa(lp3020
I0
aI0
aI0
aa(lp3021
I6
aI4
aI0
aa(lp3022
I4
aI2
aI0
aa(lp3023
I2
aI1
aI0
aa(lp3024
I5
aI3
aI0
aa(lp3025
I5
aI3
aI0
aa(lp3026
I0
aI0
aI0
aa(lp3027
I3
aI2
aI0
aa(lp3028
I2
aI1
aI0
aa(lp3029
I0
aI0
aI0
aa(lp3030
I0
aI0
aI0
aa(lp3031
I0
aI0
aI0
aa(lp3032
I5
aI3
aI0
aa(lp3033
I4
aI2
aI0
aa(lp3034
I4
aI2
aI0
aa(lp3035
I0
aI0
aI0
aa(lp3036
I4
aI2
aI0
aa(lp3037
I3
aI2
aI0
aa(lp3038
I0
aI0
aI0
aa(lp3039
I2
aI1
aI0
aa(lp3040
I6
aI2
aI0
aa(lp3041
I4
aI1
aI0
aa(lp3042
I6
aI3
aI0
aa(lp3043
I0
aI0
aI0
aa(lp3044
I7
aI3
aI0
aa(lp3045
I2
aI1
aI0
aa(lp3046
I4
aI3
aI0
aa(lp3047
I0
aI0
aI0
aa(lp3048
I0
aI0
aI0
aa(lp3049
I3
aI2
aI0
aa(lp3050
I8
aI5
aI0
aa(lp3051
I2
aI1
aI0
aa(lp3052
I7
aI3
aI0
aa(lp3053
I7
aI4
aI0
aa(lp3054
I0
aI0
aI0
aa(lp3055
I0
aI0
aI0
aa(lp3056
I0
aI0
aI0
aa(lp3057
I2
aI1
aI0
aa(lp3058
I0
aI0
aI0
aa(lp3059
I3
aI2
aI0
aa(lp3060
I0
aI0
aI0
aa(lp3061
I4
aI2
aI0
aa(lp3062
I2
aI1
aI0
aa(lp3063
I3
aI2
aI0
aa(lp3064
I6
aI2
aI0
aa(lp3065
I4
aI2
aI0
aa(lp3066
I5
aI2
aI0
aa(lp3067
I0
aI0
aI0
aa(lp3068
I4
aI2
aI0
aa(lp3069
I4
aI2
aI0
aa(lp3070
I0
aI0
aI0
aa(lp3071
I0
aI0
aI0
aa(lp3072
I0
aI0
aI0
aa(lp3073
I6
aI3
aI0
aa(lp3074
I0
aI0
aI0
aa(lp3075
I3
aI2
aI0
aa(lp3076
I0
aI0
aI0
aa(lp3077
I0
aI0
aI0
aa(lp3078
I6
aI3
aI0
aa(lp3079
I2
aI1
aI0
aa(lp3080
I4
aI2
aI0
aa(lp3081
I0
aI0
aI0
aa(lp3082
I2
aI1
aI0
aa(lp3083
I5
aI3
aI0
aa(lp3084
I6
aI2
aI0
aa(lp3085
I4
aI2
aI0
aa(lp3086
I0
aI0
aI0
aa(lp3087
I5
aI3
aI0
aa(lp3088
I6
aI3
aI0
aa(lp3089
I0
aI0
aI0
aa(lp3090
I6
aI4
aI0
aa(lp3091
I0
aI0
aI0
aa(lp3092
I8
aI4
aI0
aa(lp3093
I6
aI3
aI0
aa(lp3094
I4
aI3
aI0
aa(lp3095
I0
aI0
aI0
aa(lp3096
I5
aI3
aI0
aa(lp3097
I4
aI2
aI0
aa(lp3098
I4
aI2
aI0
aa(lp3099
I6
aI3
aI0
aa(lp3100
I0
aI0
aI0
aa(lp3101
I3
aI2
aI0
aa(lp3102
I5
aI2
aI0
aa(lp3103
I0
aI0
aI0
aa(lp3104
I0
aI0
aI0
aa(lp3105
I5
aI3
aI0
aa(lp3106
I3
aI2
aI0
aa(lp3107
I0
aI0
aI0
aa(lp3108
I0
aI0
aI0
aa(lp3109
I4
aI2
aI0
aa(lp3110
I4
aI2
aI0
aa(lp3111
I8
aI3
aI0
aa(lp3112
I6
aI3
aI0
aa(lp3113
I0
aI0
aI0
aa(lp3114
I5
aI3
aI0
aa(lp3115
I3
aI1
aI0
aa(lp3116
I0
aI0
aI0
aa(lp3117
I4
aI2
aI0
aa(lp3118
I7
aI3
aI0
aa(lp3119
I4
aI2
aI0
aa(lp3120
I0
aI0
aI0
aa(lp3121
I4
aI2
aI0
aa(lp3122
I6
aI2
aI0
aa(lp3123
I0
aI0
aI0
aa(lp3124
I5
aI3
aI0
aa(lp3125
I0
aI0
aI0
aa(lp3126
I2
aI1
aI0
aa(lp3127
I3
aI2
aI0
aa(lp3128
I6
aI3
aI0
aa(lp3129
I0
aI0
aI0
aa(lp3130
I2
aI1
aI0
aa(lp3131
I4
aI2
aI0
aa(lp3132
I0
aI0
aI0
aa(lp3133
I3
aI2
aI0
aa(lp3134
I9
aI5
aI0
aa(lp3135
I4
aI2
aI0
aa(lp3136
I4
aI2
aI0
aa(lp3137
I2
aI1
aI0
aa(lp3138
I4
aI2
aI0
aa(lp3139
I0
aI0
aI0
aa(lp3140
I0
aI0
aI0
aa(lp3141
I10
aI6
aI0
aa(lp3142
I5
aI2
aI0
aa(lp3143
I0
aI0
aI0
aa(lp3144
I2
aI1
aI0
aa(lp3145
I4
aI2
aI0
aa(lp3146
I4
aI2
aI0
aa(lp3147
I0
aI0
aI0
aa(lp3148
I3
aI2
aI0
aa(lp3149
I6
aI3
aI0
aa(lp3150
I6
aI5
aI0
aa(lp3151
I5
aI3
aI0
aa(lp3152
I3
aI2
aI0
aa(lp3153
I5
aI3
aI0
aa(lp3154
I0
aI0
aI0
aa(lp3155
I0
aI0
aI0
aa(lp3156
I6
aI4
aI0
aa(lp3157
I0
aI0
aI0
aa(lp3158
I0
aI0
aI0
aa(lp3159
I4
aI2
aI0
aa(lp3160
I6
aI3
aI0
aa(lp3161
I0
aI0
aI0
aa(lp3162
I0
aI0
aI0
aa(lp3163
I4
aI2
aI0
aa(lp3164
I5
aI3
aI0
aa(lp3165
I0
aI0
aI0
aa(lp3166
I0
aI0
aI0
aa(lp3167
I2
aI1
aI0
aa(lp3168
I4
aI2
aI0
aa(lp3169
I0
aI0
aI0
aa(lp3170
I3
aI2
aI0
aa(lp3171
I2
aI1
aI0
aa(lp3172
I0
aI0
aI0
aa(lp3173
I2
aI1
aI0
aa(lp3174
I0
aI0
aI0
aa(lp3175
I5
aI3
aI0
aa(lp3176
I0
aI0
aI0
aa(lp3177
I3
aI1
aI0
aa(lp3178
I0
aI0
aI0
aa(lp3179
I0
aI0
aI0
aa(lp3180
I8
aI4
aI0
aa(lp3181
I0
aI0
aI0
aa(lp3182
I5
aI3
aI0
aa(lp3183
I3
aI2
aI0
aa(lp3184
I0
aI0
aI0
aa(lp3185
I5
aI2
aI0
aa(lp3186
I4
aI2
aI0
aa(lp3187
I8
aI5
aI0
aa(lp3188
I3
aI2
aI0
aa(lp3189
I5
aI3
aI0
aa(lp3190
I6
aI4
aI0
aa(lp3191
I9
aI5
aI0
aa(lp3192
I4
aI3
aI0
aa(lp3193
I6
aI4
aI0
aa(lp3194
I5
aI2
aI0
aa(lp3195
I0
aI0
aI0
aa(lp3196
I0
aI0
aI0
aa(lp3197
I2
aI1
aI0
aa(lp3198
I4
aI2
aI0
aa(lp3199
I4
aI2
aI0
aa(lp3200
I3
aI2
aI0
aa(lp3201
I4
aI2
aI0
aa(lp3202
I4
aI3
aI0
aa(lp3203
I4
aI3
aI0
aa(lp3204
I5
aI3
aI0
aa(lp3205
I3
aI2
aI0
aa(lp3206
I3
aI2
aI0
aa(lp3207
I0
aI0
aI0
aa(lp3208
I3
aI2
aI0
aa(lp3209
I0
aI0
aI0
aa(lp3210
I4
aI2
aI0
aa(lp3211
I4
aI2
aI0
aa(lp3212
I0
aI0
aI0
aa(lp3213
I6
aI4
aI0
aa(lp3214
I5
aI3
aI0
aa(lp3215
I5
aI3
aI0
aa(lp3216
I2
aI1
aI0
aa(lp3217
I5
aI2
aI0
aa(lp3218
I7
aI4
aI0
aa(lp3219
I6
aI3
aI0
aa(lp3220
I4
aI3
aI0
aa(lp3221
I0
aI0
aI0
aa(lp3222
I0
aI0
aI0
aa(lp3223
I4
aI2
aI0
aa(lp3224
I12
aI7
aI0
aa(lp3225
I5
aI3
aI0
aa(lp3226
I9
aI5
aI0
aa(lp3227
I2
aI1
aI0
aa(lp3228
I4
aI2
aI0
aa(lp3229
I3
aI1
aI0
aa(lp3230
I0
aI0
aI0
aa(lp3231
I0
aI0
aI0
aa(lp3232
I10
aI6
aI0
aa(lp3233
I7
aI4
aI0
aa(lp3234
I0
aI0
aI0
aa(lp3235
I3
aI2
aI0
aa(lp3236
I2
aI1
aI0
aa(lp3237
I3
aI2
aI0
aa(lp3238
I5
aI3
aI0
aa(lp3239
I2
aI1
aI0
aa(lp3240
I4
aI2
aI0
aa(lp3241
I5
aI3
aI0
aa(lp3242
I7
aI3
aI0
aa(lp3243
I7
aI4
aI0
aa(lp3244
I5
aI3
aI0
aa(lp3245
I5
aI3
aI0
aa(lp3246
I5
aI3
aI0
aa(lp3247
I2
aI1
aI0
aa(lp3248
I5
aI2
aI0
aa(lp3249
I0
aI0
aI0
aa(lp3250
I3
aI1
aI0
aa(lp3251
I0
aI0
aI0
aa(lp3252
I0
aI0
aI0
aa(lp3253
I3
aI2
aI0
aa(lp3254
I3
aI2
aI0
aa(lp3255
I7
aI3
aI0
aa(lp3256
I0
aI0
aI0
aa(lp3257
I2
aI1
aI0
aa(lp3258
I3
aI2
aI0
aa(lp3259
I4
aI2
aI0
aa(lp3260
I0
aI0
aI0
aa(lp3261
I0
aI0
aI0
aa(lp3262
I7
aI4
aI0
aa(lp3263
I7
aI4
aI0
aa(lp3264
I2
aI1
aI0
aa(lp3265
I0
aI0
aI0
aa(lp3266
I6
aI3
aI0
aa(lp3267
I4
aI2
aI0
aa(lp3268
I8
aI4
aI0
aa(lp3269
I4
aI1
aI0
aa(lp3270
I4
aI2
aI0
aa(lp3271
I4
aI2
aI0
aa(lp3272
I2
aI1
aI0
aa(lp3273
I3
aI2
aI0
aa(lp3274
I0
aI0
aI0
aa(lp3275
I11
aI5
aI0
aa(lp3276
I0
aI0
aI0
aa(lp3277
I0
aI0
aI0
aa(lp3278
I0
aI0
aI0
aa(lp3279
I6
aI3
aI0
aa(lp3280
I10
aI5
aI0
aa(lp3281
I0
aI0
aI0
aa(lp3282
I8
aI5
aI0
aa(lp3283
I3
aI1
aI0
aa(lp3284
I2
aI1
aI0
aa(lp3285
I8
aI4
aI0
aa(lp3286
I0
aI0
aI0
aa(lp3287
I2
aI1
aI0
aa(lp3288
I0
aI0
aI0
aa(lp3289
I4
aI2
aI0
aa(lp3290
I0
aI0
aI0
aa(lp3291
I8
aI4
aI0
aa(lp3292
I5
aI2
aI0
aa(lp3293
I4
aI2
aI0
aa(lp3294
I2
aI1
aI0
aa(lp3295
I0
aI0
aI0
aa(lp3296
I6
aI3
aI0
aa(lp3297
I3
aI2
aI0
aa(lp3298
I0
aI0
aI0
aa(lp3299
I2
aI1
aI0
aa(lp3300
I0
aI0
aI0
aa(lp3301
I3
aI2
aI0
aa(lp3302
I4
aI2
aI0
aa(lp3303
I4
aI2
aI0
aa(lp3304
I7
aI4
aI0
aa(lp3305
I4
aI2
aI0
aa(lp3306
I6
aI3
aI0
aa(lp3307
I4
aI2
aI0
aa(lp3308
I0
aI0
aI0
aa(lp3309
I0
aI0
aI0
aa(lp3310
I2
aI1
aI0
aa(lp3311
I0
aI0
aI0
aa(lp3312
I3
aI2
aI0
aa(lp3313
I6
aI4
aI0
aa(lp3314
I6
aI3
aI0
aa(lp3315
I6
aI3
aI0
aa(lp3316
I2
aI1
aI0
aa(lp3317
I2
aI1
aI0
aa(lp3318
I4
aI2
aI0
aa(lp3319
I4
aI2
aI0
aa(lp3320
I7
aI4
aI0
aa(lp3321
I4
aI2
aI0
aa(lp3322
I4
aI3
aI0
aa(lp3323
I0
aI0
aI0
aa(lp3324
I0
aI0
aI0
aa(lp3325
I0
aI0
aI0
aa(lp3326
I2
aI1
aI0
aa(lp3327
I6
aI4
aI0
aa(lp3328
I0
aI0
aI0
aa(lp3329
I7
aI3
aI0
aa(lp3330
I0
aI0
aI0
aa(lp3331
I4
aI2
aI0
aa(lp3332
I4
aI2
aI0
aa(lp3333
I0
aI0
aI0
aa(lp3334
I4
aI2
aI0
aa(lp3335
I2
aI1
aI0
aa(lp3336
I8
aI5
aI0
aa(lp3337
I0
aI0
aI0
aa(lp3338
I4
aI2
aI0
aa(lp3339
I0
aI0
aI0
aa(lp3340
I4
aI2
aI0
aa(lp3341
I0
aI0
aI0
aa(lp3342
I2
aI1
aI0
aa(lp3343
I6
aI4
aI0
aa(lp3344
I0
aI0
aI0
aa(lp3345
I0
aI0
aI0
aa(lp3346
I0
aI0
aI0
aa(lp3347
I2
aI1
aI0
aa(lp3348
I8
aI5
aI0
aa(lp3349
I2
aI1
aI0
aa(lp3350
I7
aI5
aI0
aa(lp3351
I7
aI4
aI0
aa(lp3352
I2
aI1
aI0
aa(lp3353
I2
aI1
aI0
aa(lp3354
I10
aI2
aI0
aa(lp3355
I0
aI0
aI0
aa(lp3356
I4
aI2
aI0
aa(lp3357
I7
aI3
aI0
aa(lp3358
I3
aI2
aI0
aa(lp3359
I5
aI2
aI0
aa(lp3360
I4
aI2
aI0
aa(lp3361
I3
aI1
aI0
aa(lp3362
I0
aI0
aI0
aa(lp3363
I4
aI2
aI0
aa(lp3364
I2
aI1
aI0
aa(lp3365
I6
aI3
aI0
aa(lp3366
I4
aI2
aI0
aa(lp3367
I5
aI3
aI0
aa(lp3368
I7
aI4
aI0
aa(lp3369
I7
aI4
aI0
aa(lp3370
I7
aI3
aI0
aa(lp3371
I0
aI0
aI0
aa(lp3372
I6
aI3
aI0
aa(lp3373
I0
aI0
aI0
aa(lp3374
I0
aI0
aI0
aa(lp3375
I5
aI0
aI0
aa(lp3376
I0
aI0
aI0
aa(lp3377
I5
aI3
aI0
aa(lp3378
I5
aI4
aI0
aa(lp3379
I5
aI3
aI0
aa(lp3380
I3
aI2
aI0
aa(lp3381
I3
aI2
aI0
aa(lp3382
I0
aI0
aI0
aa(lp3383
I6
aI3
aI0
aa(lp3384
I0
aI0
aI0
aa(lp3385
I6
aI4
aI0
aa(lp3386
I0
aI0
aI0
aa(lp3387
I4
aI2
aI0
aa(lp3388
I0
aI0
aI0
aa(lp3389
I4
aI2
aI0
aa(lp3390
I4
aI2
aI0
aa(lp3391
I6
aI3
aI0
aa(lp3392
I0
aI0
aI0
aa(lp3393
I0
aI0
aI0
aa(lp3394
I2
aI1
aI0
aa(lp3395
I6
aI3
aI0
aa(lp3396
I3
aI2
aI0
aa(lp3397
I6
aI4
aI0
aa(lp3398
I0
aI0
aI0
aa(lp3399
I0
aI0
aI0
aa(lp3400
I3
aI1
aI0
aa(lp3401
I4
aI2
aI0
aa(lp3402
I5
aI2
aI0
aa(lp3403
I0
aI0
aI0
aa(lp3404
I2
aI1
aI0
aa(lp3405
I3
aI2
aI0
aa(lp3406
I5
aI2
aI0
aa(lp3407
I4
aI2
aI0
aa(lp3408
I2
aI1
aI0
aa(lp3409
I0
aI0
aI0
aa(lp3410
I5
aI3
aI0
aa(lp3411
I2
aI1
aI0
aa(lp3412
I0
aI0
aI0
aa(lp3413
I2
aI1
aI0
aa(lp3414
I0
aI0
aI0
aa(lp3415
I4
aI2
aI0
aa(lp3416
I6
aI3
aI0
aa(lp3417
I4
aI2
aI0
aa(lp3418
I0
aI0
aI0
aa(lp3419
I4
aI2
aI0
aa(lp3420
I6
aI3
aI0
aa(lp3421
I5
aI3
aI0
aa(lp3422
I5
aI3
aI0
aa(lp3423
I2
aI1
aI0
aa(lp3424
I0
aI0
aI0
aa(lp3425
I6
aI3
aI0
aa(lp3426
I4
aI2
aI0
aa(lp3427
I0
aI0
aI0
aa(lp3428
I3
aI2
aI0
aa(lp3429
I0
aI0
aI0
aa(lp3430
I4
aI2
aI0
aa(lp3431
I0
aI0
aI0
aa(lp3432
I2
aI1
aI0
aa(lp3433
I0
aI0
aI0
aa(lp3434
I6
aI3
aI0
aa(lp3435
I4
aI2
aI0
aa(lp3436
I0
aI0
aI0
aa(lp3437
I2
aI1
aI0
aa(lp3438
I4
aI2
aI0
aa(lp3439
I2
aI1
aI0
aa(lp3440
I2
aI1
aI0
aa(lp3441
I5
aI2
aI0
aa(lp3442
I4
aI2
aI0
aa(lp3443
I4
aI2
aI0
aa(lp3444
I0
aI0
aI0
aa(lp3445
I3
aI2
aI0
aa(lp3446
I4
aI3
aI0
aa(lp3447
I0
aI0
aI0
aa(lp3448
I2
aI1
aI0
aa(lp3449
I0
aI0
aI0
aa(lp3450
I2
aI1
aI0
aa(lp3451
I6
aI3
aI0
aa(lp3452
I2
aI1
aI0
aa(lp3453
I4
aI2
aI0
aa(lp3454
I3
aI2
aI0
aa(lp3455
I3
aI2
aI0
aa(lp3456
I4
aI2
aI0
aa(lp3457
I0
aI0
aI0
aa(lp3458
I7
aI4
aI0
aa(lp3459
I6
aI4
aI0
aa(lp3460
I3
aI2
aI0
aa(lp3461
I5
aI2
aI0
aa(lp3462
I4
aI2
aI0
aa(lp3463
I4
aI2
aI0
aa(lp3464
I0
aI0
aI0
aa(lp3465
I2
aI1
aI0
aa(lp3466
I0
aI0
aI0
aa(lp3467
I7
aI4
aI0
aa(lp3468
I2
aI1
aI0
aa(lp3469
I0
aI0
aI0
aa(lp3470
I4
aI2
aI0
aa(lp3471
I5
aI3
aI0
aa(lp3472
I3
aI2
aI0
aa(lp3473
I4
aI2
aI0
aa(lp3474
I5
aI3
aI0
aa(lp3475
I4
aI2
aI0
aa(lp3476
I0
aI0
aI0
aa(lp3477
I0
aI0
aI0
aa(lp3478
I5
aI3
aI0
aa(lp3479
I3
aI2
aI0
aa(lp3480
I2
aI1
aI0
aa(lp3481
I3
aI1
aI0
aa(lp3482
I3
aI2
aI0
aa(lp3483
I2
aI1
aI0
aa(lp3484
I3
aI1
aI0
aa(lp3485
I6
aI3
aI0
aa(lp3486
I3
aI1
aI0
aa(lp3487
I0
aI0
aI0
aa(lp3488
I0
aI0
aI0
aa(lp3489
I2
aI1
aI0
aa(lp3490
I3
aI1
aI0
aa(lp3491
I6
aI4
aI0
aa(lp3492
I8
aI6
aI0
aa(lp3493
I4
aI2
aI0
aa(lp3494
I6
aI3
aI0
aa(lp3495
I0
aI0
aI0
aa(lp3496
I4
aI3
aI0
aa(lp3497
I0
aI0
aI0
aa(lp3498
I5
aI3
aI0
aa(lp3499
I0
aI0
aI0
aa(lp3500
I3
aI1
aI0
aa(lp3501
I9
aI5
aI0
aa(lp3502
I5
aI2
aI0
aa(lp3503
I3
aI2
aI0
aa(lp3504
I0
aI0
aI0
aa(lp3505
I4
aI2
aI0
aa(lp3506
I4
aI3
aI0
aa(lp3507
I0
aI0
aI0
aa(lp3508
I4
aI3
aI0
aa(lp3509
I3
aI2
aI0
aa(lp3510
I4
aI2
aI0
aa(lp3511
I0
aI0
aI0
aa(lp3512
I6
aI4
aI0
aa(lp3513
I2
aI1
aI0
aa(lp3514
I0
aI0
aI0
aa(lp3515
I6
aI4
aI0
aa(lp3516
I4
aI2
aI0
aa(lp3517
I6
aI4
aI0
aa(lp3518
I2
aI1
aI0
aa(lp3519
I2
aI1
aI0
aa(lp3520
I2
aI1
aI0
aa(lp3521
I3
aI2
aI0
aa(lp3522
I2
aI1
aI0
aa(lp3523
I0
aI0
aI0
aa(lp3524
I3
aI2
aI0
aa(lp3525
I5
aI3
aI0
aa(lp3526
I5
aI3
aI0
aa(lp3527
I4
aI2
aI0
aa(lp3528
I8
aI4
aI0
aa(lp3529
I2
aI1
aI0
aa(lp3530
I0
aI0
aI0
aa(lp3531
I3
aI2
aI0
aa(lp3532
I6
aI3
aI0
aa(lp3533
I0
aI0
aI0
aa(lp3534
I4
aI2
aI0
aa(lp3535
I4
aI3
aI0
aa(lp3536
I2
aI1
aI0
aa(lp3537
I4
aI2
aI0
aa(lp3538
I0
aI0
aI0
aa(lp3539
I6
aI3
aI0
aa(lp3540
I0
aI0
aI0
aa(lp3541
I0
aI0
aI0
aa(lp3542
I4
aI3
aI0
aa(lp3543
I4
aI2
aI0
aa(lp3544
I4
aI3
aI0
aa(lp3545
I5
aI3
aI0
aa(lp3546
I2
aI1
aI0
aa(lp3547
I2
aI1
aI0
aa(lp3548
I0
aI0
aI0
aa(lp3549
I4
aI3
aI0
aa(lp3550
I2
aI1
aI0
aa(lp3551
I6
aI3
aI0
aa(lp3552
I3
aI2
aI0
aa(lp3553
I6
aI3
aI0
aa(lp3554
I4
aI1
aI0
aa(lp3555
I2
aI1
aI0
aa(lp3556
I0
aI0
aI0
aa(lp3557
I4
aI2
aI0
aa(lp3558
I0
aI0
aI0
aa(lp3559
I6
aI3
aI0
aa(lp3560
I5
aI3
aI0
aa(lp3561
I4
aI2
aI0
aa(lp3562
I5
aI3
aI0
aa(lp3563
I3
aI2
aI0
aa(lp3564
I0
aI0
aI0
aa(lp3565
I5
aI3
aI0
aa(lp3566
I0
aI0
aI0
aa(lp3567
I4
aI2
aI0
aa(lp3568
I6
aI4
aI0
aa(lp3569
I0
aI0
aI0
aa(lp3570
I3
aI2
aI0
aa(lp3571
I13
aI7
aI0
aa(lp3572
I2
aI1
aI0
aa(lp3573
I0
aI0
aI0
aa(lp3574
I4
aI3
aI0
aa(lp3575
I4
aI2
aI0
aa(lp3576
I3
aI1
aI0
aa(lp3577
I0
aI0
aI0
aa(lp3578
I6
aI3
aI0
aa(lp3579
I6
aI4
aI0
aa(lp3580
I0
aI0
aI0
aa(lp3581
I5
aI2
aI0
aa(lp3582
I2
aI1
aI0
aa(lp3583
I4
aI2
aI0
aa(lp3584
I7
aI4
aI0
aa(lp3585
I6
aI3
aI0
aa(lp3586
I0
aI0
aI0
aa(lp3587
I3
aI2
aI0
aa(lp3588
I6
aI3
aI0
aa(lp3589
I6
aI4
aI0
aa(lp3590
I4
aI2
aI0
aa(lp3591
I7
aI3
aI0
aa(lp3592
I4
aI2
aI0
aa(lp3593
I3
aI2
aI0
aa(lp3594
I5
aI3
aI0
aa(lp3595
I0
aI0
aI0
aa(lp3596
I2
aI1
aI0
aa(lp3597
I2
aI1
aI0
aa(lp3598
I4
aI3
aI0
aa(lp3599
I2
aI1
aI0
aa(lp3600
I2
aI1
aI0
aa(lp3601
I3
aI2
aI0
aa(lp3602
I7
aI4
aI0
aa(lp3603
I2
aI1
aI0
aa(lp3604
I3
aI2
aI0
aa(lp3605
I0
aI0
aI0
aa(lp3606
I4
aI2
aI0
aa(lp3607
I12
aI7
aI0
aa(lp3608
I4
aI1
aI0
aa(lp3609
I0
aI0
aI0
aa(lp3610
I5
aI3
aI0
aa(lp3611
I6
aI3
aI0
aa(lp3612
I4
aI2
aI0
aa(lp3613
I0
aI0
aI0
aa(lp3614
I3
aI1
aI0
aa(lp3615
I0
aI0
aI0
aa(lp3616
I0
aI0
aI0
aa(lp3617
I4
aI2
aI0
aa(lp3618
I6
aI4
aI0
aa(lp3619
I4
aI3
aI0
aa(lp3620
I0
aI0
aI0
aa(lp3621
I4
aI2
aI0
aa(lp3622
I2
aI1
aI0
aa(lp3623
I0
aI0
aI0
aa(lp3624
I0
aI0
aI0
aa(lp3625
I6
aI3
aI0
aa(lp3626
I7
aI4
aI0
aa(lp3627
I4
aI2
aI0
aa(lp3628
I3
aI2
aI0
aa(lp3629
I6
aI3
aI0
aa(lp3630
I0
aI0
aI0
aa(lp3631
I8
aI4
aI0
aa(lp3632
I2
aI1
aI0
aa(lp3633
I4
aI2
aI0
aa(lp3634
I3
aI2
aI0
aa(lp3635
I0
aI0
aI0
aa(lp3636
I0
aI0
aI0
aa(lp3637
I2
aI1
aI0
aa(lp3638
I0
aI0
aI0
aa(lp3639
I0
aI0
aI0
aa(lp3640
I0
aI0
aI0
aa(lp3641
I2
aI1
aI0
aa(lp3642
I6
aI4
aI0
aa(lp3643
I5
aI2
aI0
aa(lp3644
I0
aI0
aI0
aa(lp3645
I5
aI2
aI0
aa(lp3646
I0
aI0
aI0
aa(lp3647
I6
aI3
aI0
aa(lp3648
I0
aI0
aI0
aa(lp3649
I4
aI2
aI0
aa(lp3650
I4
aI2
aI0
aa(lp3651
I6
aI3
aI0
aa(lp3652
I9
aI5
aI0
aa(lp3653
I0
aI0
aI0
aa(lp3654
I0
aI0
aI0
aa(lp3655
I5
aI2
aI0
aa(lp3656
I2
aI1
aI0
aa(lp3657
I4
aI2
aI0
aa(lp3658
I0
aI0
aI0
aa(lp3659
I0
aI0
aI0
aa(lp3660
I0
aI0
aI0
aa(lp3661
I6
aI3
aI0
aa(lp3662
I7
aI4
aI0
aa(lp3663
I2
aI1
aI0
aa(lp3664
I5
aI2
aI0
aa(lp3665
I0
aI0
aI0
aa(lp3666
I10
aI5
aI0
aa(lp3667
I2
aI1
aI0
aa(lp3668
I0
aI0
aI0
aa(lp3669
I0
aI0
aI0
aa(lp3670
I2
aI1
aI0
aa(lp3671
I6
aI3
aI0
aa(lp3672
I2
aI1
aI0
aa(lp3673
I6
aI4
aI0
aa(lp3674
I5
aI3
aI0
aa(lp3675
I8
aI4
aI0
aa(lp3676
I0
aI0
aI0
aa(lp3677
I0
aI0
aI0
aa(lp3678
I5
aI3
aI0
aa(lp3679
I0
aI0
aI0
aa(lp3680
I0
aI0
aI0
aa(lp3681
I4
aI2
aI0
aa(lp3682
I5
aI2
aI0
aa(lp3683
I2
aI1
aI0
aa(lp3684
I6
aI4
aI0
aa(lp3685
I4
aI1
aI0
aa(lp3686
I4
aI2
aI0
aa(lp3687
I0
aI0
aI0
aa(lp3688
I5
aI3
aI0
aa(lp3689
I6
aI3
aI0
aa(lp3690
I0
aI0
aI0
aa(lp3691
I0
aI0
aI0
aa(lp3692
I4
aI2
aI0
aa(lp3693
I3
aI2
aI0
aa(lp3694
I5
aI3
aI0
aa(lp3695
I4
aI2
aI0
aa(lp3696
I0
aI0
aI0
aa(lp3697
I0
aI0
aI0
aa(lp3698
I0
aI0
aI0
aa(lp3699
I11
aI6
aI0
aa(lp3700
I8
aI4
aI0
aa(lp3701
I0
aI0
aI0
aa(lp3702
I0
aI0
aI0
aa(lp3703
I7
aI4
aI0
aa(lp3704
I4
aI2
aI0
aa(lp3705
I6
aI3
aI0
aa(lp3706
I0
aI0
aI0
aa(lp3707
I5
aI3
aI0
aa(lp3708
I4
aI2
aI0
aa(lp3709
I2
aI1
aI0
aa(lp3710
I3
aI1
aI0
aa(lp3711
I3
aI2
aI0
aa(lp3712
I6
aI3
aI0
aa(lp3713
I0
aI0
aI0
aa(lp3714
I0
aI0
aI0
aa(lp3715
I10
aI5
aI0
aa(lp3716
I6
aI5
aI0
aa(lp3717
I4
aI2
aI0
aa(lp3718
I6
aI3
aI0
aa(lp3719
I3
aI2
aI0
aa(lp3720
I2
aI1
aI0
aa(lp3721
I4
aI2
aI0
aa(lp3722
I0
aI0
aI0
aa(lp3723
I7
aI5
aI0
aa(lp3724
I4
aI2
aI0
aa(lp3725
I2
aI1
aI0
aa(lp3726
I0
aI0
aI0
aa(lp3727
I5
aI3
aI0
aa(lp3728
I5
aI2
aI0
aa(lp3729
I0
aI0
aI0
aa(lp3730
I5
aI3
aI0
aa(lp3731
I0
aI0
aI0
aa(lp3732
I5
aI3
aI0
aa(lp3733
I2
aI1
aI0
aa(lp3734
I4
aI2
aI0
aa(lp3735
I2
aI1
aI0
aa(lp3736
I0
aI0
aI0
aa(lp3737
I10
aI4
aI0
aa(lp3738
I5
aI3
aI0
aa(lp3739
I2
aI1
aI0
aa(lp3740
I4
aI2
aI0
aa(lp3741
I0
aI0
aI0
aa(lp3742
I3
aI1
aI0
aa(lp3743
I0
aI0
aI0
aa(lp3744
I6
aI4
aI0
aa(lp3745
I2
aI1
aI0
aa(lp3746
I0
aI0
aI0
aa(lp3747
I0
aI0
aI0
aa(lp3748
I0
aI0
aI0
aa(lp3749
I0
aI0
aI0
aa(lp3750
I7
aI3
aI0
aa(lp3751
I2
aI1
aI0
aa(lp3752
I1
aI0
aI0
aa(lp3753
I4
aI2
aI0
aa(lp3754
I5
aI3
aI0
aa(lp3755
I5
aI3
aI0
aa(lp3756
I3
aI1
aI0
aa(lp3757
I0
aI0
aI0
aa(lp3758
I0
aI0
aI0
aa(lp3759
I4
aI2
aI0
aa(lp3760
I7
aI2
aI0
aa(lp3761
I2
aI1
aI0
aa(lp3762
I3
aI1
aI0
aa(lp3763
I3
aI2
aI0
aa(lp3764
I0
aI0
aI0
aa(lp3765
I4
aI3
aI0
aa(lp3766
I6
aI3
aI0
aa(lp3767
I0
aI0
aI0
aa(lp3768
I0
aI0
aI0
aa(lp3769
I7
aI4
aI0
aa(lp3770
I2
aI1
aI0
aa(lp3771
I3
aI2
aI0
aa(lp3772
I4
aI2
aI0
aa(lp3773
I6
aI3
aI0
aa(lp3774
I4
aI2
aI0
aa(lp3775
I0
aI0
aI0
aa(lp3776
I5
aI2
aI0
aa(lp3777
I6
aI3
aI0
aa(lp3778
I4
aI2
aI0
aa(lp3779
I2
aI1
aI0
aa(lp3780
I4
aI2
aI0
aa(lp3781
I7
aI4
aI0
aa(lp3782
I6
aI3
aI0
aa(lp3783
I5
aI3
aI0
aa(lp3784
I2
aI1
aI0
aa(lp3785
I2
aI1
aI0
aa(lp3786
I6
aI3
aI0
aa(lp3787
I7
aI4
aI0
aa(lp3788
I4
aI3
aI0
aa(lp3789
I4
aI2
aI0
aa(lp3790
I6
aI4
aI0
aa(lp3791
I4
aI2
aI0
aa(lp3792
I3
aI2
aI0
aa(lp3793
I0
aI0
aI0
aa(lp3794
I2
aI1
aI0
aa(lp3795
I5
aI3
aI0
aa(lp3796
I4
aI3
aI0
aa(lp3797
I3
aI1
aI0
aa(lp3798
I5
aI2
aI0
aa(lp3799
I5
aI3
aI0
aa(lp3800
I0
aI0
aI0
aa(lp3801
I0
aI0
aI0
aa(lp3802
I6
aI4
aI0
aa(lp3803
I2
aI1
aI0
aa(lp3804
I4
aI2
aI0
aa(lp3805
I6
aI4
aI0
aa(lp3806
I4
aI2
aI0
aa(lp3807
I3
aI2
aI0
aa(lp3808
I7
aI5
aI0
aa(lp3809
I0
aI0
aI0
aa(lp3810
I7
aI2
aI0
aa(lp3811
I2
aI1
aI0
aa(lp3812
I4
aI2
aI0
aa(lp3813
I5
aI3
aI0
aa(lp3814
I0
aI0
aI0
aa(lp3815
I4
aI2
aI0
aa(lp3816
I2
aI1
aI0
aa(lp3817
I0
aI0
aI0
aa(lp3818
I0
aI0
aI0
aa(lp3819
I0
aI0
aI0
aa(lp3820
I3
aI2
aI0
aa(lp3821
I6
aI3
aI0
aa(lp3822
I3
aI2
aI0
aa(lp3823
I0
aI0
aI0
aa(lp3824
I3
aI2
aI0
aa(lp3825
I6
aI3
aI0
aa(lp3826
I4
aI2
aI0
aa(lp3827
I4
aI2
aI0
aa(lp3828
I0
aI0
aI0
aa(lp3829
I5
aI3
aI0
aa(lp3830
I4
aI2
aI0
aa(lp3831
I6
aI3
aI0
aa(lp3832
I2
aI1
aI0
aa(lp3833
I5
aI3
aI0
aa(lp3834
I9
aI5
aI0
aa(lp3835
I4
aI2
aI0
aa(lp3836
I0
aI0
aI0
aa(lp3837
I0
aI0
aI0
aa(lp3838
I3
aI2
aI0
aa(lp3839
I0
aI0
aI0
aa(lp3840
I0
aI0
aI0
aa(lp3841
I6
aI3
aI0
aa(lp3842
I7
aI4
aI0
aa(lp3843
I0
aI0
aI0
aa(lp3844
I5
aI3
aI0
aa(lp3845
I6
aI3
aI0
aa(lp3846
I0
aI0
aI0
aa(lp3847
I0
aI0
aI0
aa(lp3848
I5
aI3
aI0
aa(lp3849
I5
aI3
aI0
aa(lp3850
I3
aI2
aI0
aa(lp3851
I0
aI0
aI0
aa(lp3852
I5
aI3
aI0
aa(lp3853
I5
aI3
aI0
aa(lp3854
I0
aI0
aI0
aa(lp3855
I3
aI2
aI0
aa(lp3856
I5
aI3
aI0
aa(lp3857
I0
aI0
aI0
aa(lp3858
I2
aI1
aI0
aa(lp3859
I11
aI5
aI0
aa(lp3860
I5
aI2
aI0
aa(lp3861
I4
aI2
aI0
aa(lp3862
I9
aI7
aI0
aa(lp3863
I8
aI5
aI0
aa(lp3864
I4
aI1
aI0
aa(lp3865
I2
aI1
aI0
aa(lp3866
I3
aI1
aI0
aa(lp3867
I0
aI0
aI0
aa(lp3868
I4
aI2
aI0
aa(lp3869
I0
aI0
aI0
aa(lp3870
I5
aI3
aI0
aa(lp3871
I0
aI0
aI0
aa(lp3872
I2
aI1
aI0
aa(lp3873
I7
aI3
aI0
aa(lp3874
I3
aI2
aI0
aa(lp3875
I9
aI6
aI0
aa(lp3876
I4
aI3
aI0
aa(lp3877
I4
aI3
aI0
aa(lp3878
I0
aI0
aI0
aa(lp3879
I3
aI2
aI0
aa(lp3880
I7
aI4
aI0
aa(lp3881
I4
aI2
aI0
aa(lp3882
I0
aI0
aI0
aa(lp3883
I2
aI1
aI0
aa(lp3884
I2
aI1
aI0
aa(lp3885
I0
aI0
aI0
aa(lp3886
I0
aI0
aI0
aa(lp3887
I4
aI2
aI0
aa(lp3888
I4
aI2
aI0
aa(lp3889
I4
aI2
aI0
aa(lp3890
I7
aI4
aI0
aa(lp3891
I4
aI2
aI0
aa(lp3892
I4
aI2
aI0
aa(lp3893
I7
aI3
aI0
aa(lp3894
I0
aI0
aI0
aa.