(lp1
(lp2
I469
aI126
aI0
aa(lp3
I324
aI105
aI0
aa(lp4
I298
aI85
aI0
aa(lp5
I405
aI116
aI0
aa(lp6
I157
aI48
aI0
aa(lp7
I216
aI64
aI0
aa(lp8
I292
aI90
aI0
aa(lp9
I243
aI76
aI0
aa(lp10
I299
aI93
aI0
aa(lp11
I293
aI86
aI0
aa(lp12
I316
aI102
aI0
aa(lp13
I613
aI202
aI0
aa(lp14
I414
aI125
aI0
aa(lp15
I249
aI84
aI0
aa(lp16
I437
aI141
aI0
aa(lp17
I367
aI126
aI0
aa(lp18
I96
aI29
aI0
aa(lp19
I254
aI53
aI0
aa(lp20
I695
aI215
aI0
aa(lp21
I246
aI69
aI0
aa(lp22
I400
aI119
aI0
aa(lp23
I253
aI62
aI0
aa(lp24
I558
aI170
aI0
aa(lp25
I578
aI197
aI0
aa(lp26
I423
aI134
aI0
aa(lp27
I627
aI200
aI0
aa(lp28
I104
aI32
aI0
aa(lp29
I144
aI39
aI0
aa(lp30
I188
aI53
aI0
aa(lp31
I204
aI62
aI0
aa(lp32
I302
aI88
aI0
aa(lp33
I446
aI108
aI0
aa(lp34
I163
aI45
aI0
aa(lp35
I153
aI40
aI0
aa(lp36
I268
aI77
aI0
aa(lp37
I335
aI114
aI0
aa(lp38
I46
aI12
aI0
aa(lp39
I492
aI150
aI0
aa(lp40
I327
aI82
aI0
aa(lp41
I205
aI67
aI0
aa(lp42
I224
aI69
aI0
aa(lp43
I254
aI81
aI0
aa(lp44
I293
aI83
aI0
aa(lp45
I225
aI62
aI0
aa(lp46
I207
aI71
aI0
aa(lp47
I151
aI40
aI0
aa(lp48
I244
aI70
aI0
aa(lp49
I231
aI71
aI0
aa(lp50
I322
aI110
aI0
aa(lp51
I531
aI162
aI0
aa(lp52
I398
aI114
aI0
aa(lp53
I124
aI40
aI0
aa(lp54
I173
aI57
aI0
aa(lp55
I193
aI65
aI0
aa(lp56
I182
aI47
aI0
aa(lp57
I144
aI41
aI0
aa(lp58
I212
aI70
aI0
aa(lp59
I206
aI54
aI0
aa(lp60
I190
aI61
aI0
aa(lp61
I231
aI75
aI0
aa(lp62
I180
aI50
aI0
aa(lp63
I170
aI48
aI0
aa(lp64
I361
aI118
aI0
aa(lp65
I235
aI77
aI0
aa(lp66
I213
aI49
aI0
aa(lp67
I558
aI177
aI0
aa(lp68
I286
aI99
aI0
aa(lp69
I233
aI67
aI0
aa(lp70
I478
aI148
aI0
aa(lp71
I351
aI105
aI0
aa(lp72
I252
aI76
aI0
aa(lp73
I256
aI81
aI0
aa(lp74
I428
aI129
aI0
aa(lp75
I209
aI45
aI0
aa(lp76
I186
aI57
aI0
aa(lp77
I575
aI174
aI0
aa(lp78
I190
aI43
aI0
aa(lp79
I177
aI42
aI0
aa(lp80
I205
aI57
aI0
aa(lp81
I432
aI131
aI0
aa(lp82
I399
aI122
aI0
aa(lp83
I399
aI117
aI0
aa(lp84
I320
aI107
aI0
aa(lp85
I293
aI99
aI0
aa(lp86
I180
aI52
aI0
aa(lp87
I249
aI71
aI0
aa(lp88
I517
aI159
aI0
aa(lp89
I151
aI45
aI0
aa(lp90
I199
aI61
aI0
aa(lp91
I247
aI74
aI0
aa(lp92
I167
aI50
aI0
aa(lp93
I226
aI74
aI0
aa(lp94
I171
aI45
aI0
aa(lp95
I273
aI78
aI0
aa(lp96
I241
aI71
aI0
aa(lp97
I172
aI48
aI0
aa(lp98
I354
aI106
aI0
aa(lp99
I230
aI70
aI0
aa(lp100
I167
aI63
aI0
aa(lp101
I231
aI62
aI0
aa(lp102
I224
aI57
aI0
aa(lp103
I253
aI83
aI0
aa(lp104
I152
aI48
aI0
aa(lp105
I261
aI81
aI0
aa(lp106
I253
aI71
aI0
aa(lp107
I757
aI251
aI0
aa(lp108
I325
aI105
aI0
aa(lp109
I323
aI86
aI0
aa(lp110
I192
aI56
aI0
aa(lp111
I147
aI49
aI0
aa(lp112
I252
aI86
aI0
aa(lp113
I911
aI311
aI0
aa(lp114
I223
aI64
aI0
aa(lp115
I162
aI46
aI0
aa(lp116
I222
aI70
aI0
aa(lp117
I555
aI176
aI0
aa(lp118
I362
aI116
aI0
aa(lp119
I388
aI121
aI0
aa(lp120
I244
aI75
aI0
aa(lp121
I158
aI41
aI0
aa(lp122
I267
aI76
aI0
aa(lp123
I691
aI177
aI0
aa(lp124
I461
aI148
aI0
aa(lp125
I427
aI130
aI0
aa(lp126
I239
aI56
aI0
aa(lp127
I205
aI63
aI0
aa(lp128
I323
aI99
aI0
aa(lp129
I194
aI57
aI0
aa.